TN:
SF:/Library/Developer/CommandLineTools/SDKs/MacOSX10.14.sdk/usr/include/_ctype.h
FN:135,_Z7isasciii
FN:153,_Z8__istypeim
FN:273,_Z7isupperi
FNDA:221,_Z7isasciii
FNDA:221,_Z8__istypeim
FNDA:221,_Z7isupperi
FNF:3
FNH:3
DA:137,221
DA:158,663
DA:159,0
DA:275,221
LF:4
LH:3
end_of_record
SF:/Library/Developer/CommandLineTools/usr/include/c++/v1/__split_buffer
FN:56,_ZNSt3__114__split_bufferIN11GrammarRule6SymbolERNS_9allocatorIS2_EEE7__allocEv
FN:58,_ZNSt3__114__split_bufferIN11GrammarRule6SymbolERNS_9allocatorIS2_EEE9__end_capEv
FN:59,_ZNKSt3__114__split_bufferIN11GrammarRule6SymbolERNS_9allocatorIS2_EEE9__end_capEv
FN:87,_ZNSt3__114__split_bufferIN11GrammarRule6SymbolERNS_9allocatorIS2_EEE5clearEv
FN:91,_ZNKSt3__114__split_bufferIN11GrammarRule6SymbolERNS_9allocatorIS2_EEE8capacityEv
FN:140,_ZNSt3__114__split_bufferIN11GrammarRule6SymbolERNS_9allocatorIS2_EEE17__destruct_at_endEPS2_
FN:293,_ZNSt3__114__split_bufferIN11GrammarRule6SymbolERNS_9allocatorIS2_EEE17__destruct_at_endEPS2_NS_17integral_constantIbLb0EEE
FN:308,_ZNSt3__114__split_bufferIN11GrammarRule6SymbolERNS_9allocatorIS2_EEEC1EmmS5_
FN:308,_ZNSt3__114__split_bufferIN11GrammarRule6SymbolERNS_9allocatorIS2_EEEC2EmmS5_
FN:339,_ZNSt3__114__split_bufferIN11GrammarRule6SymbolERNS_9allocatorIS2_EEED1Ev
FN:339,_ZNSt3__114__split_bufferIN11GrammarRule6SymbolERNS_9allocatorIS2_EEED2Ev
FNDA:235,_ZNSt3__114__split_bufferIN11GrammarRule6SymbolERNS_9allocatorIS2_EEE7__allocEv
FNDA:246,_ZNSt3__114__split_bufferIN11GrammarRule6SymbolERNS_9allocatorIS2_EEE9__end_capEv
FNDA:43,_ZNKSt3__114__split_bufferIN11GrammarRule6SymbolERNS_9allocatorIS2_EEE9__end_capEv
FNDA:123,_ZNSt3__114__split_bufferIN11GrammarRule6SymbolERNS_9allocatorIS2_EEE5clearEv
FNDA:43,_ZNKSt3__114__split_bufferIN11GrammarRule6SymbolERNS_9allocatorIS2_EEE8capacityEv
FNDA:123,_ZNSt3__114__split_bufferIN11GrammarRule6SymbolERNS_9allocatorIS2_EEE17__destruct_at_endEPS2_
FNDA:123,_ZNSt3__114__split_bufferIN11GrammarRule6SymbolERNS_9allocatorIS2_EEE17__destruct_at_endEPS2_NS_17integral_constantIbLb0EEE
FNDA:123,_ZNSt3__114__split_bufferIN11GrammarRule6SymbolERNS_9allocatorIS2_EEEC1EmmS5_
FNDA:123,_ZNSt3__114__split_bufferIN11GrammarRule6SymbolERNS_9allocatorIS2_EEEC2EmmS5_
FNDA:123,_ZNSt3__114__split_bufferIN11GrammarRule6SymbolERNS_9allocatorIS2_EEED1Ev
FNDA:123,_ZNSt3__114__split_bufferIN11GrammarRule6SymbolERNS_9allocatorIS2_EEED2Ev
FNF:11
FNH:11
DA:56,235
DA:58,246
DA:59,43
DA:88,123
DA:91,43
DA:141,123
DA:295,384
DA:296,69
DA:297,123
DA:309,123
DA:310,246
DA:311,369
DA:312,123
DA:313,123
DA:314,246
DA:340,123
DA:341,123
DA:342,123
DA:343,86
DA:344,246
LF:20
LH:20
end_of_record
SF:/Library/Developer/CommandLineTools/usr/include/c++/v1/__string
FN:217,_ZNSt3__111char_traitsIcE6lengthEPKc
FN:234,_ZNSt3__111char_traitsIcE11to_int_typeEc
FN:244,_ZNSt3__111char_traitsIcE7compareEPKcS3_m
FN:266,_ZNSt3__111char_traitsIcE4findEPKcmRS2_
FN:652,_ZNSt3__118__search_substringIcNS_11char_traitsIcEEEEPKT_S5_S5_S5_S5_
FN:691,_ZNSt3__1L10__str_findIcmNS_11char_traitsIcEELm18446744073709551615EEET0_PKT_S3_S6_S3_S3_
FNDA:0,_ZNSt3__111char_traitsIcE6lengthEPKc
FNDA:254,_ZNSt3__111char_traitsIcE11to_int_typeEc
FNDA:172,_ZNSt3__111char_traitsIcE7compareEPKcS3_m
FNDA:172,_ZNSt3__111char_traitsIcE4findEPKcmRS2_
FNDA:172,_ZNSt3__118__search_substringIcNS_11char_traitsIcEEEEPKT_S5_S5_S5_S5_
FNDA:172,_ZNSt3__1L10__str_findIcmNS_11char_traitsIcEELm18446744073709551615EEET0_PKT_S3_S6_S3_S3_
FNF:6
FNH:5
DA:217,0
DA:235,254
DA:246,172
DA:247,0
DA:249,172
DA:262,172
DA:268,172
DA:269,0
DA:271,172
DA:283,172
DA:656,172
DA:657,172
DA:658,0
DA:660,172
DA:661,172
DA:662,0
DA:665,172
DA:666,172
DA:667,172
DA:669,172
DA:670,0
DA:673,172
DA:674,172
DA:675,0
DA:682,172
DA:683,172
DA:685,0
DA:687,172
DA:694,172
DA:695,0
DA:697,172
DA:698,0
DA:700,344
DA:701,172
DA:703,172
DA:704,0
DA:705,172
DA:706,172
LF:38
LH:27
end_of_record
SF:/Library/Developer/CommandLineTools/usr/include/c++/v1/algorithm
FN:684,_ZNKSt3__110__equal_toIN11GrammarRule6SymbolES2_EclERKS2_S5_
FN:721,_ZNKSt3__16__lessImmEclERKmS3_
FN:1324,_ZNSt3__1L5equalINS_11__wrap_iterIPKN11GrammarRule6SymbolEEES6_NS_10__equal_toIS3_S3_EEEEbT_S9_T0_T1_
FN:1335,_ZNSt3__1L5equalINS_11__wrap_iterIPKN11GrammarRule6SymbolEEES6_EEbT_S7_T0_
FN:1691,_ZNSt3__1L13__unwrap_iterIPN11GrammarRule6SymbolEEET_S4_
FN:1756,_ZNSt3__1L6__copyIN11GrammarRule6SymbolES2_EENS_9enable_ifIXaasr7is_sameINS_12remove_constIT_E4typeET0_EE5valuesr28is_trivially_copy_assignableIS8_EE5valueEPS8_E4typeEPS5_SC_S9_
FN:1767,_ZNSt3__1L4copyIPN11GrammarRule6SymbolES3_EET0_T_S5_S4_
FN:2560,_ZNSt3__1L3minImNS_6__lessImmEEEERKT_S5_S5_T0_
FN:2568,_ZNSt3__1L3minImEERKT_S3_S3_
FN:2625,_ZNSt3__1L3maxImNS_6__lessImmEEEERKT_S5_S5_T0_
FN:2633,_ZNSt3__1L3maxImEERKT_S3_S3_
FNDA:35,_ZNKSt3__110__equal_toIN11GrammarRule6SymbolES2_EclERKS2_S5_
FNDA:75305,_ZNKSt3__16__lessImmEclERKmS3_
FNDA:35,_ZNSt3__1L5equalINS_11__wrap_iterIPKN11GrammarRule6SymbolEEES6_NS_10__equal_toIS3_S3_EEEEbT_S9_T0_T1_
FNDA:35,_ZNSt3__1L5equalINS_11__wrap_iterIPKN11GrammarRule6SymbolEEES6_EEbT_S7_T0_
FNDA:606,_ZNSt3__1L13__unwrap_iterIPN11GrammarRule6SymbolEEET_S4_
FNDA:202,_ZNSt3__1L6__copyIN11GrammarRule6SymbolES2_EENS_9enable_ifIXaasr7is_sameINS_12remove_constIT_E4typeET0_EE5valuesr28is_trivially_copy_assignableIS8_EE5valueEPS8_E4typeEPS5_SC_S9_
FNDA:202,_ZNSt3__1L4copyIPN11GrammarRule6SymbolES3_EET0_T_S5_S4_
FNDA:75102,_ZNSt3__1L3minImNS_6__lessImmEEEERKT_S5_S5_T0_
FNDA:75102,_ZNSt3__1L3minImEERKT_S3_S3_
FNDA:203,_ZNSt3__1L3maxImNS_6__lessImmEEEERKT_S5_S5_T0_
FNDA:203,_ZNSt3__1L3maxImEERKT_S3_S3_
FNF:11
FNH:11
DA:684,35
DA:721,75305
DA:1326,140
DA:1327,70
DA:1328,0
DA:1329,35
DA:1330,35
DA:1339,35
DA:1693,606
DA:1758,202
DA:1759,202
DA:1760,164
DA:1761,202
DA:1769,202
DA:2562,225306
DA:2570,75102
DA:2627,609
DA:2635,203
LF:18
LH:17
end_of_record
SF:/Library/Developer/CommandLineTools/usr/include/c++/v1/iterator
FN:554,_ZNSt3__1L9__advanceIPN11GrammarRule6SymbolEEEvRT_NS_15iterator_traitsIS4_E15difference_typeENS_26random_access_iterator_tagE
FN:562,_ZNSt3__1L7advanceIPN11GrammarRule6SymbolEEEvRT_NS_15iterator_traitsIS4_E15difference_typeE
FN:582,_ZNSt3__1L10__distanceIPN11GrammarRule6SymbolEEENS_15iterator_traitsIT_E15difference_typeES5_S5_NS_26random_access_iterator_tagE
FN:590,_ZNSt3__1L8distanceIPN11GrammarRule6SymbolEEENS_15iterator_traitsIT_E15difference_typeES5_S5_
FN:1350,_ZNKSt3__111__wrap_iterIPKcEdeEv
FN:1350,_ZNKSt3__111__wrap_iterIPKN11GrammarRule6SymbolEEdeEv
FN:1366,_ZNSt3__111__wrap_iterIPKN11GrammarRule6SymbolEEppEv
FN:1366,_ZNSt3__111__wrap_iterIPKcEppEv
FN:1413,_ZNKSt3__111__wrap_iterIPKN11GrammarRule6SymbolEE4baseEv
FN:1413,_ZNKSt3__111__wrap_iterIPKcE4baseEv
FN:1422,_ZNSt3__111__wrap_iterIPKN11GrammarRule6SymbolEEC1ES4_
FN:1422,_ZNSt3__111__wrap_iterIPKcEC1ES2_
FN:1422,_ZNSt3__111__wrap_iterIPKN11GrammarRule6SymbolEEC2ES4_
FN:1422,_ZNSt3__111__wrap_iterIPKcEC2ES2_
FN:1507,_ZNSt3__1eqIPKN11GrammarRule6SymbolES4_EEbRKNS_11__wrap_iterIT_EERKNS5_IT0_EE
FN:1507,_ZNSt3__1eqIPKcS2_EEbRKNS_11__wrap_iterIT_EERKNS3_IT0_EE
FN:1559,_ZNSt3__1neIPKN11GrammarRule6SymbolEEEbRKNS_11__wrap_iterIT_EES9_
FN:1559,_ZNSt3__1neIPKcEEbRKNS_11__wrap_iterIT_EES7_
FNDA:0,_ZNSt3__1L9__advanceIPN11GrammarRule6SymbolEEEvRT_NS_15iterator_traitsIS4_E15difference_typeENS_26random_access_iterator_tagE
FNDA:0,_ZNSt3__1L7advanceIPN11GrammarRule6SymbolEEEvRT_NS_15iterator_traitsIS4_E15difference_typeE
FNDA:282,_ZNSt3__1L10__distanceIPN11GrammarRule6SymbolEEENS_15iterator_traitsIT_E15difference_typeES5_S5_NS_26random_access_iterator_tagE
FNDA:282,_ZNSt3__1L8distanceIPN11GrammarRule6SymbolEEENS_15iterator_traitsIT_E15difference_typeES5_S5_
FNDA:135,_ZNKSt3__111__wrap_iterIPKcEdeEv
FNDA:70,_ZNKSt3__111__wrap_iterIPKN11GrammarRule6SymbolEEdeEv
FNDA:135,_ZNSt3__111__wrap_iterIPKcEppEv
FNDA:70,_ZNSt3__111__wrap_iterIPKN11GrammarRule6SymbolEEppEv
FNDA:442,_ZNKSt3__111__wrap_iterIPKcE4baseEv
FNDA:140,_ZNKSt3__111__wrap_iterIPKN11GrammarRule6SymbolEE4baseEv
FNDA:172,_ZNSt3__111__wrap_iterIPKcEC1ES2_
FNDA:172,_ZNSt3__111__wrap_iterIPKcEC2ES2_
FNDA:105,_ZNSt3__111__wrap_iterIPKN11GrammarRule6SymbolEEC1ES4_
FNDA:105,_ZNSt3__111__wrap_iterIPKN11GrammarRule6SymbolEEC2ES4_
FNDA:221,_ZNSt3__1eqIPKcS2_EEbRKNS_11__wrap_iterIT_EERKNS3_IT0_EE
FNDA:70,_ZNSt3__1eqIPKN11GrammarRule6SymbolES4_EEbRKNS_11__wrap_iterIT_EERKNS5_IT0_EE
FNDA:221,_ZNSt3__1neIPKcEEbRKNS_11__wrap_iterIT_EES7_
FNDA:70,_ZNSt3__1neIPKN11GrammarRule6SymbolEEEbRKNS_11__wrap_iterIT_EES9_
FNF:18
FNH:16
DA:557,0
DA:558,0
DA:565,0
DA:566,0
DA:584,282
DA:592,282
DA:1356,205
DA:1372,205
DA:1373,205
DA:1413,582
DA:1422,554
DA:1509,291
DA:1561,291
LF:13
LH:9
end_of_record
SF:/Library/Developer/CommandLineTools/usr/include/c++/v1/limits
FN:213,_ZNSt3__123__libcpp_numeric_limitsIlLb1EE3maxEv
FN:450,_ZNSt3__114numeric_limitsIlE3maxEv
FNDA:0,_ZNSt3__123__libcpp_numeric_limitsIlLb1EE3maxEv
FNDA:0,_ZNSt3__114numeric_limitsIlE3maxEv
FNF:2
FNH:0
DA:213,0
DA:450,0
LF:2
LH:0
end_of_record
SF:/Library/Developer/CommandLineTools/usr/include/c++/v1/memory
FN:987,_ZNSt3__114pointer_traitsIPKcE10pointer_toERS1_
FN:1105,_ZNSt3__1L16__to_raw_pointerIKcEEPT_S3_
FN:1105,_ZNSt3__1L16__to_raw_pointerIN11GrammarRule6SymbolEEEPT_S4_
FN:1545,_ZNSt3__116allocator_traitsINS_9allocatorIN11GrammarRule6SymbolEEEE8allocateERS4_m
FN:1553,_ZNSt3__116allocator_traitsINS_9allocatorIN11GrammarRule6SymbolEEEE10deallocateERS4_PS3_m
FN:1559,_ZNSt3__116allocator_traitsINS_9allocatorIN11GrammarRule6SymbolEEEE9constructIS3_JRKcEEEvRS4_PT_DpOT0_
FN:1594,_ZNSt3__116allocator_traitsINS_9allocatorIN11GrammarRule6SymbolEEEE7destroyIS3_EEvRS4_PT_
FN:1598,_ZNSt3__116allocator_traitsINS_9allocatorIN11GrammarRule6SymbolEEEE8max_sizeERKS4_
FN:1661,_ZNSt3__116allocator_traitsINS_9allocatorIN11GrammarRule6SymbolEEEE25__construct_range_forwardIS3_S3_S3_S3_EENS_9enable_ifIXaaaasr31is_trivially_move_constructibleIT0_EE5valuesr7is_sameIT1_T2_EE5valueooL_ZNS_17integral_constantIbLb1EE5valueEEntsr15__has_constructIS4_PS8_RT_EE5valueEvE4typeERS4_PSE_SJ_RSD_
FN:1694,_ZNSt3__116allocator_traitsINS_9allocatorIN11GrammarRule6SymbolEEEE20__construct_backwardIS3_EENS_9enable_ifIXaaooL_ZNS_17integral_constantIbLb1EE5valueEEntsr15__has_constructIS4_PT_SA_EE5valuesr31is_trivially_move_constructibleISA_EE5valueEvE4typeERS4_SB_SB_RSB_
FN:1716,_ZNSt3__116allocator_traitsINS_9allocatorIN11GrammarRule6SymbolEEEE11__constructIS3_JRKcEEEvNS_17integral_constantIbLb1EEERS4_PT_DpOT0_
FN:1741,_ZNSt3__116allocator_traitsINS_9allocatorIN11GrammarRule6SymbolEEEE9__destroyIS3_EEvNS_17integral_constantIbLb1EEERS4_PT_
FN:1751,_ZNSt3__116allocator_traitsINS_9allocatorIN11GrammarRule6SymbolEEEE10__max_sizeENS_17integral_constantIbLb1EEERKS4_
FN:1797,_ZNSt3__19allocatorIN11GrammarRule6SymbolEEC2Ev
FN:1797,_ZNSt3__19allocatorIcEC2Ev
FN:1808,_ZNSt3__19allocatorIN11GrammarRule6SymbolEE8allocateEmPKv
FN:1815,_ZNSt3__19allocatorIN11GrammarRule6SymbolEE10deallocateEPS2_m
FN:1817,_ZNKSt3__19allocatorIN11GrammarRule6SymbolEE8max_sizeEv
FN:1823,_ZNSt3__19allocatorIN11GrammarRule6SymbolEE9constructIS2_JRKcEEEvPT_DpOT0_
FN:1880,_ZNSt3__19allocatorIN11GrammarRule6SymbolEE7destroyEPS2_
FN:2139,_ZNSt3__122__compressed_pair_elemINS_12basic_stringIcNS_11char_traitsIcEENS_9allocatorIcEEE5__repELi0ELb0EEC2Ev
FN:2146,_ZNSt3__122__compressed_pair_elemIPN11GrammarRule6SymbolELi0ELb0EEC2IDnvEEOT_
FN:2146,_ZNSt3__122__compressed_pair_elemIRNS_9allocatorIN11GrammarRule6SymbolEEELi1ELb0EEC2IS5_vEEOT_
FN:2160,_ZNSt3__122__compressed_pair_elemIRNS_9allocatorIN11GrammarRule6SymbolEEELi1ELb0EE5__getEv
FN:2160,_ZNSt3__122__compressed_pair_elemIPN11GrammarRule6SymbolELi0ELb0EE5__getEv
FN:2162,_ZNKSt3__122__compressed_pair_elemINS_12basic_stringIcNS_11char_traitsIcEENS_9allocatorIcEEE5__repELi0ELb0EE5__getEv
FN:2162,_ZNKSt3__122__compressed_pair_elemIPN11GrammarRule6SymbolELi0ELb0EE5__getEv
FN:2176,_ZNSt3__122__compressed_pair_elemINS_9allocatorIcEELi1ELb1EEC2Ev
FN:2176,_ZNSt3__122__compressed_pair_elemINS_9allocatorIN11GrammarRule6SymbolEEELi1ELb1EEC2Ev
FN:2198,_ZNSt3__122__compressed_pair_elemINS_9allocatorIN11GrammarRule6SymbolEEELi1ELb1EE5__getEv
FN:2200,_ZNKSt3__122__compressed_pair_elemINS_9allocatorIN11GrammarRule6SymbolEEELi1ELb1EE5__getEv
FN:2200,_ZNKSt3__122__compressed_pair_elemINS_9allocatorIcEELi1ELb1EE5__getEv
FN:2230,_ZNSt3__117__compressed_pairINS_12basic_stringIcNS_11char_traitsIcEENS_9allocatorIcEEE5__repES5_EC1ILb1EvEEv
FN:2230,_ZNSt3__117__compressed_pairINS_12basic_stringIcNS_11char_traitsIcEENS_9allocatorIcEEE5__repES5_EC2ILb1EvEEv
FN:2236,_ZNSt3__117__compressed_pairIPN11GrammarRule6SymbolENS_9allocatorIS2_EEEC2IDnLb1EEEOT_
FN:2236,_ZNSt3__117__compressed_pairIPN11GrammarRule6SymbolENS_9allocatorIS2_EEEC1IDnLb1EEEOT_
FN:2246,_ZNSt3__117__compressed_pairIPN11GrammarRule6SymbolERNS_9allocatorIS2_EEEC2IDnS6_EEOT_OT0_
FN:2246,_ZNSt3__117__compressed_pairIPN11GrammarRule6SymbolERNS_9allocatorIS2_EEEC1IDnS6_EEOT_OT0_
FN:2275,_ZNSt3__117__compressed_pairIPN11GrammarRule6SymbolERNS_9allocatorIS2_EEE5firstEv
FN:2275,_ZNSt3__117__compressed_pairIPN11GrammarRule6SymbolENS_9allocatorIS2_EEE5firstEv
FN:2280,_ZNKSt3__117__compressed_pairINS_12basic_stringIcNS_11char_traitsIcEENS_9allocatorIcEEE5__repES5_E5firstEv
FN:2280,_ZNKSt3__117__compressed_pairIPN11GrammarRule6SymbolENS_9allocatorIS2_EEE5firstEv
FN:2280,_ZNKSt3__117__compressed_pairIPN11GrammarRule6SymbolERNS_9allocatorIS2_EEE5firstEv
FN:2285,_ZNSt3__117__compressed_pairIPN11GrammarRule6SymbolENS_9allocatorIS2_EEE6secondEv
FN:2285,_ZNSt3__117__compressed_pairIPN11GrammarRule6SymbolERNS_9allocatorIS2_EEE6secondEv
FN:2290,_ZNKSt3__117__compressed_pairIPN11GrammarRule6SymbolENS_9allocatorIS2_EEE6secondEv
FN:2290,_ZNKSt3__117__compressed_pairINS_12basic_stringIcNS_11char_traitsIcEENS_9allocatorIcEEE5__repES5_E6secondEv
FNDA:602,_ZNSt3__114pointer_traitsIPKcE10pointer_toERS1_
FNDA:1996,_ZNSt3__1L16__to_raw_pointerIN11GrammarRule6SymbolEEEPT_S4_
FNDA:430,_ZNSt3__1L16__to_raw_pointerIKcEEPT_S3_
FNDA:123,_ZNSt3__116allocator_traitsINS_9allocatorIN11GrammarRule6SymbolEEEE8allocateERS4_m
FNDA:43,_ZNSt3__116allocator_traitsINS_9allocatorIN11GrammarRule6SymbolEEEE10deallocateERS4_PS3_m
FNDA:135,_ZNSt3__116allocator_traitsINS_9allocatorIN11GrammarRule6SymbolEEEE9constructIS3_JRKcEEEvRS4_PT_DpOT0_
FNDA:69,_ZNSt3__116allocator_traitsINS_9allocatorIN11GrammarRule6SymbolEEEE7destroyIS3_EEvRS4_PT_
FNDA:0,_ZNSt3__116allocator_traitsINS_9allocatorIN11GrammarRule6SymbolEEEE8max_sizeERKS4_
FNDA:0,_ZNSt3__116allocator_traitsINS_9allocatorIN11GrammarRule6SymbolEEEE25__construct_range_forwardIS3_S3_S3_S3_EENS_9enable_ifIXaaaasr31is_trivially_move_constructibleIT0_EE5valuesr7is_sameIT1_T2_EE5valueooL_ZNS_17integral_constantIbLb1EE5valueEEntsr15__has_constructIS4_PS8_RT_EE5valueEvE4typeERS4_PSE_SJ_RSD_
FNDA:123,_ZNSt3__116allocator_traitsINS_9allocatorIN11GrammarRule6SymbolEEEE20__construct_backwardIS3_EENS_9enable_ifIXaaooL_ZNS_17integral_constantIbLb1EE5valueEEntsr15__has_constructIS4_PT_SA_EE5valuesr31is_trivially_move_constructibleISA_EE5valueEvE4typeERS4_SB_SB_RSB_
FNDA:135,_ZNSt3__116allocator_traitsINS_9allocatorIN11GrammarRule6SymbolEEEE11__constructIS3_JRKcEEEvNS_17integral_constantIbLb1EEERS4_PT_DpOT0_
FNDA:69,_ZNSt3__116allocator_traitsINS_9allocatorIN11GrammarRule6SymbolEEEE9__destroyIS3_EEvNS_17integral_constantIbLb1EEERS4_PT_
FNDA:0,_ZNSt3__116allocator_traitsINS_9allocatorIN11GrammarRule6SymbolEEEE10__max_sizeENS_17integral_constantIbLb1EEERKS4_
FNDA:1,_ZNSt3__19allocatorIcEC2Ev
FNDA:172,_ZNSt3__19allocatorIN11GrammarRule6SymbolEEC2Ev
FNDA:123,_ZNSt3__19allocatorIN11GrammarRule6SymbolEE8allocateEmPKv
FNDA:43,_ZNSt3__19allocatorIN11GrammarRule6SymbolEE10deallocateEPS2_m
FNDA:123,_ZNKSt3__19allocatorIN11GrammarRule6SymbolEE8max_sizeEv
FNDA:135,_ZNSt3__19allocatorIN11GrammarRule6SymbolEE9constructIS2_JRKcEEEvPT_DpOT0_
FNDA:69,_ZNSt3__19allocatorIN11GrammarRule6SymbolEE7destroyEPS2_
FNDA:1,_ZNSt3__122__compressed_pair_elemINS_12basic_stringIcNS_11char_traitsIcEENS_9allocatorIcEEE5__repELi0ELb0EEC2Ev
FNDA:295,_ZNSt3__122__compressed_pair_elemIPN11GrammarRule6SymbolELi0ELb0EEC2IDnvEEOT_
FNDA:123,_ZNSt3__122__compressed_pair_elemIRNS_9allocatorIN11GrammarRule6SymbolEEELi1ELb0EEC2IS5_vEEOT_
FNDA:504,_ZNSt3__122__compressed_pair_elemIPN11GrammarRule6SymbolELi0ELb0EE5__getEv
FNDA:235,_ZNSt3__122__compressed_pair_elemIRNS_9allocatorIN11GrammarRule6SymbolEEELi1ELb0EE5__getEv
FNDA:1222,_ZNKSt3__122__compressed_pair_elemIPN11GrammarRule6SymbolELi0ELb0EE5__getEv
FNDA:2580,_ZNKSt3__122__compressed_pair_elemINS_12basic_stringIcNS_11char_traitsIcEENS_9allocatorIcEEE5__repELi0ELb0EE5__getEv
FNDA:1,_ZNSt3__122__compressed_pair_elemINS_9allocatorIcEELi1ELb1EEC2Ev
FNDA:172,_ZNSt3__122__compressed_pair_elemINS_9allocatorIN11GrammarRule6SymbolEEELi1ELb1EEC2Ev
FNDA:258,_ZNSt3__122__compressed_pair_elemINS_9allocatorIN11GrammarRule6SymbolEEELi1ELb1EE5__getEv
FNDA:0,_ZNKSt3__122__compressed_pair_elemINS_9allocatorIN11GrammarRule6SymbolEEELi1ELb1EE5__getEv
FNDA:172,_ZNKSt3__122__compressed_pair_elemINS_9allocatorIcEELi1ELb1EE5__getEv
FNDA:1,_ZNSt3__117__compressed_pairINS_12basic_stringIcNS_11char_traitsIcEENS_9allocatorIcEEE5__repES5_EC1ILb1EvEEv
FNDA:1,_ZNSt3__117__compressed_pairINS_12basic_stringIcNS_11char_traitsIcEENS_9allocatorIcEEE5__repES5_EC2ILb1EvEEv
FNDA:172,_ZNSt3__117__compressed_pairIPN11GrammarRule6SymbolENS_9allocatorIS2_EEEC1IDnLb1EEEOT_
FNDA:172,_ZNSt3__117__compressed_pairIPN11GrammarRule6SymbolENS_9allocatorIS2_EEEC2IDnLb1EEEOT_
FNDA:123,_ZNSt3__117__compressed_pairIPN11GrammarRule6SymbolERNS_9allocatorIS2_EEEC1IDnS6_EEOT_OT0_
FNDA:123,_ZNSt3__117__compressed_pairIPN11GrammarRule6SymbolERNS_9allocatorIS2_EEEC2IDnS6_EEOT_OT0_
FNDA:258,_ZNSt3__117__compressed_pairIPN11GrammarRule6SymbolENS_9allocatorIS2_EEE5firstEv
FNDA:246,_ZNSt3__117__compressed_pairIPN11GrammarRule6SymbolERNS_9allocatorIS2_EEE5firstEv
FNDA:1179,_ZNKSt3__117__compressed_pairIPN11GrammarRule6SymbolENS_9allocatorIS2_EEE5firstEv
FNDA:2580,_ZNKSt3__117__compressed_pairINS_12basic_stringIcNS_11char_traitsIcEENS_9allocatorIcEEE5__repES5_E5firstEv
FNDA:43,_ZNKSt3__117__compressed_pairIPN11GrammarRule6SymbolERNS_9allocatorIS2_EEE5firstEv
FNDA:258,_ZNSt3__117__compressed_pairIPN11GrammarRule6SymbolENS_9allocatorIS2_EEE6secondEv
FNDA:235,_ZNSt3__117__compressed_pairIPN11GrammarRule6SymbolERNS_9allocatorIS2_EEE6secondEv
FNDA:0,_ZNKSt3__117__compressed_pairIPN11GrammarRule6SymbolENS_9allocatorIS2_EEE6secondEv
FNDA:172,_ZNKSt3__117__compressed_pairINS_12basic_stringIcNS_11char_traitsIcEENS_9allocatorIcEEE5__repES5_E6secondEv
FNF:47
FNH:42
DA:989,602
DA:1107,2426
DA:1546,123
DA:1554,43
DA:1560,270
DA:1561,270
DA:1595,69
DA:1599,0
DA:1663,0
DA:1664,0
DA:1666,0
DA:1667,0
DA:1668,0
DA:1669,0
DA:1696,123
DA:1697,123
DA:1698,123
DA:1699,43
DA:1700,123
DA:1717,135
DA:1742,69
DA:1752,0
DA:1797,173
DA:1810,123
DA:1811,0
DA:1813,123
DA:1816,86
DA:1818,123
DA:1825,135
DA:1826,135
DA:1880,69
DA:2139,1
DA:2147,418
DA:2160,739
DA:2162,3802
DA:2176,173
DA:2198,258
DA:2200,172
DA:2230,2
DA:2237,344
DA:2247,246
DA:2276,504
DA:2281,3802
DA:2286,493
DA:2291,172
LF:45
LH:36
end_of_record
SF:/Library/Developer/CommandLineTools/usr/include/c++/v1/new
FN:228,_ZNSt3__1L24__is_overaligned_for_newEm
FN:236,_ZNSt3__1L17__libcpp_allocateEmm
FN:256,_ZNSt3__1L19__libcpp_deallocateEPvm
FNDA:166,_ZNSt3__1L24__is_overaligned_for_newEm
FNDA:123,_ZNSt3__1L17__libcpp_allocateEmm
FNDA:43,_ZNSt3__1L19__libcpp_deallocateEPvm
FNF:3
FNH:3
DA:230,166
DA:238,123
DA:239,0
DA:243,0
DA:252,123
DA:254,123
DA:258,43
DA:259,0
DA:263,0
DA:272,43
DA:274,43
LF:11
LH:7
end_of_record
SF:/Library/Developer/CommandLineTools/usr/include/c++/v1/stdexcept
FN:126,_ZNSt16invalid_argumentC2EPKc
FN:126,_ZNSt16invalid_argumentC1EPKc
FN:136,_ZNSt12length_errorC2EPKc
FN:136,_ZNSt12length_errorC1EPKc
FN:222,_ZNSt3__1L20__throw_length_errorEPKc
FNDA:0,_ZNSt16invalid_argumentC1EPKc
FNDA:0,_ZNSt16invalid_argumentC2EPKc
FNDA:0,_ZNSt12length_errorC1EPKc
FNDA:0,_ZNSt12length_errorC2EPKc
FNDA:0,_ZNSt3__1L20__throw_length_errorEPKc
FNF:5
FNH:0
DA:126,0
DA:136,0
DA:225,0
DA:230,0
LF:4
LH:0
end_of_record
SF:/Library/Developer/CommandLineTools/usr/include/c++/v1/string
FN:811,_ZNSt3__112basic_stringIcNS_11char_traitsIcEENS_9allocatorIcEEEC1IDnEEPKc
FN:811,_ZNSt3__112basic_stringIcNS_11char_traitsIcEENS_9allocatorIcEEEC2IDnEEPKc
FN:905,_ZNKSt3__112basic_stringIcNS_11char_traitsIcEENS_9allocatorIcEEE5beginEv
FN:911,_ZNKSt3__112basic_stringIcNS_11char_traitsIcEENS_9allocatorIcEEE3endEv
FN:940,_ZNKSt3__112basic_stringIcNS_11char_traitsIcEENS_9allocatorIcEEE4sizeEv
FN:957,_ZNKSt3__112basic_stringIcNS_11char_traitsIcEENS_9allocatorIcEEE5emptyEv
FN:1228,_ZNKSt3__112basic_stringIcNS_11char_traitsIcEENS_9allocatorIcEEE4dataEv
FN:1405,_ZNKSt3__112basic_stringIcNS_11char_traitsIcEENS_9allocatorIcEEE9__is_longEv
FN:1422,_ZNKSt3__112basic_stringIcNS_11char_traitsIcEENS_9allocatorIcEEE7__allocEv
FN:1454,_ZNKSt3__112basic_stringIcNS_11char_traitsIcEENS_9allocatorIcEEE16__get_short_sizeEv
FN:1467,_ZNKSt3__112basic_stringIcNS_11char_traitsIcEENS_9allocatorIcEEE15__get_long_sizeEv
FN:1487,_ZNKSt3__112basic_stringIcNS_11char_traitsIcEENS_9allocatorIcEEE18__get_long_pointerEv
FN:1493,_ZNKSt3__112basic_stringIcNS_11char_traitsIcEENS_9allocatorIcEEE19__get_short_pointerEv
FN:1499,_ZNKSt3__112basic_stringIcNS_11char_traitsIcEENS_9allocatorIcEEE13__get_pointerEv
FN:3152,_ZNKSt3__112basic_stringIcNS_11char_traitsIcEENS_9allocatorIcEEEixEm
FN:3236,_ZNKSt3__112basic_stringIcNS_11char_traitsIcEENS_9allocatorIcEEE6substrEmm
FN:3292,_ZNKSt3__112basic_stringIcNS_11char_traitsIcEENS_9allocatorIcEEE4findERKS5_m
FNDA:1,_ZNSt3__112basic_stringIcNS_11char_traitsIcEENS_9allocatorIcEEEC1IDnEEPKc
FNDA:1,_ZNSt3__112basic_stringIcNS_11char_traitsIcEENS_9allocatorIcEEEC2IDnEEPKc
FNDA:86,_ZNKSt3__112basic_stringIcNS_11char_traitsIcEENS_9allocatorIcEEE5beginEv
FNDA:86,_ZNKSt3__112basic_stringIcNS_11char_traitsIcEENS_9allocatorIcEEE3endEv
FNDA:688,_ZNKSt3__112basic_stringIcNS_11char_traitsIcEENS_9allocatorIcEEE4sizeEv
FNDA:86,_ZNKSt3__112basic_stringIcNS_11char_traitsIcEENS_9allocatorIcEEE5emptyEv
FNDA:430,_ZNKSt3__112basic_stringIcNS_11char_traitsIcEENS_9allocatorIcEEE4dataEv
FNDA:1290,_ZNKSt3__112basic_stringIcNS_11char_traitsIcEENS_9allocatorIcEEE9__is_longEv
FNDA:172,_ZNKSt3__112basic_stringIcNS_11char_traitsIcEENS_9allocatorIcEEE7__allocEv
FNDA:688,_ZNKSt3__112basic_stringIcNS_11char_traitsIcEENS_9allocatorIcEEE16__get_short_sizeEv
FNDA:0,_ZNKSt3__112basic_stringIcNS_11char_traitsIcEENS_9allocatorIcEEE15__get_long_sizeEv
FNDA:0,_ZNKSt3__112basic_stringIcNS_11char_traitsIcEENS_9allocatorIcEEE18__get_long_pointerEv
FNDA:602,_ZNKSt3__112basic_stringIcNS_11char_traitsIcEENS_9allocatorIcEEE19__get_short_pointerEv
FNDA:602,_ZNKSt3__112basic_stringIcNS_11char_traitsIcEENS_9allocatorIcEEE13__get_pointerEv
FNDA:86,_ZNKSt3__112basic_stringIcNS_11char_traitsIcEENS_9allocatorIcEEEixEm
FNDA:172,_ZNKSt3__112basic_stringIcNS_11char_traitsIcEENS_9allocatorIcEEE6substrEmm
FNDA:172,_ZNKSt3__112basic_stringIcNS_11char_traitsIcEENS_9allocatorIcEEE4findERKS5_m
FNF:17
FNH:15
DA:811,2
DA:813,1
DA:817,2
DA:906,86
DA:912,86
DA:941,2064
DA:957,86
DA:1228,430
DA:1406,1290
DA:1423,172
DA:1458,688
DA:1468,0
DA:1488,0
DA:1494,602
DA:1500,1806
DA:3155,86
DA:3238,172
DA:3295,172
DA:3296,172
LF:19
LH:17
end_of_record
SF:/Library/Developer/CommandLineTools/usr/include/c++/v1/type_traits
FN:449,_ZNSt3__1L9addressofIKcEEPT_RS2_
FN:2288,_ZNSt3__1L4moveIRPN11GrammarRule6SymbolEEEONS_16remove_referenceIT_E4typeEOS6_
FN:2297,_ZNSt3__1L7forwardIDnEEOT_RNS_16remove_referenceIS1_E4typeE
FN:2297,_ZNSt3__1L7forwardIRNS_9allocatorIN11GrammarRule6SymbolEEEEEOT_RNS_16remove_referenceIS6_E4typeE
FN:2297,_ZNSt3__1L7forwardIRKcEEOT_RNS_16remove_referenceIS3_E4typeE
FN:4501,_ZNSt3__1L4swapIPN11GrammarRule6SymbolEEENS_9enable_ifIXaasr21is_move_constructibleIT_EE5valuesr18is_move_assignableIS5_EE5valueEvE4typeERS5_S8_
FNDA:602,_ZNSt3__1L9addressofIKcEEPT_RS2_
FNDA:1107,_ZNSt3__1L4moveIRPN11GrammarRule6SymbolEEEONS_16remove_referenceIT_E4typeEOS6_
FNDA:590,_ZNSt3__1L7forwardIDnEEOT_RNS_16remove_referenceIS1_E4typeE
FNDA:663,_ZNSt3__1L7forwardIRKcEEOT_RNS_16remove_referenceIS3_E4typeE
FNDA:246,_ZNSt3__1L7forwardIRNS_9allocatorIN11GrammarRule6SymbolEEEEEOT_RNS_16remove_referenceIS6_E4typeE
FNDA:369,_ZNSt3__1L4swapIPN11GrammarRule6SymbolEEENS_9enable_ifIXaasr21is_move_constructibleIT_EE5valuesr18is_move_assignableIS5_EE5valueEvE4typeERS5_S8_
FNF:6
FNH:6
DA:451,602
DA:2291,1107
DA:2299,1499
DA:4504,369
DA:4505,369
DA:4506,369
DA:4507,369
LF:7
LH:7
end_of_record
SF:/Library/Developer/CommandLineTools/usr/include/c++/v1/vector
FN:298,_ZNSt3__120__vector_base_commonILb1EEC2Ev
FN:342,_ZNSt3__113__vector_baseIN11GrammarRule6SymbolENS_9allocatorIS2_EEE7__allocEv
FN:345,_ZNKSt3__113__vector_baseIN11GrammarRule6SymbolENS_9allocatorIS2_EEE7__allocEv
FN:348,_ZNSt3__113__vector_baseIN11GrammarRule6SymbolENS_9allocatorIS2_EEE9__end_capEv
FN:351,_ZNKSt3__113__vector_baseIN11GrammarRule6SymbolENS_9allocatorIS2_EEE9__end_capEv
FN:364,_ZNSt3__113__vector_baseIN11GrammarRule6SymbolENS_9allocatorIS2_EEE5clearEv
FN:366,_ZNKSt3__113__vector_baseIN11GrammarRule6SymbolENS_9allocatorIS2_EEE8capacityEv
FN:373,_ZNSt3__113__vector_baseIN11GrammarRule6SymbolENS_9allocatorIS2_EEE19__copy_assign_allocERKS5_
FN:398,_ZNSt3__113__vector_baseIN11GrammarRule6SymbolENS_9allocatorIS2_EEE19__copy_assign_allocERKS5_NS_17integral_constantIbLb0EEE
FN:417,_ZNSt3__113__vector_baseIN11GrammarRule6SymbolENS_9allocatorIS2_EEE17__destruct_at_endEPS2_
FN:427,_ZNSt3__113__vector_baseIN11GrammarRule6SymbolENS_9allocatorIS2_EEEC2Ev
FN:454,_ZNSt3__113__vector_baseIN11GrammarRule6SymbolENS_9allocatorIS2_EEED2Ev
FN:464,_ZNSt3__16vectorIN11GrammarRule6SymbolENS_9allocatorIS2_EEED2Ev
FN:464,_ZNSt3__16vectorIN11GrammarRule6SymbolENS_9allocatorIS2_EEED1Ev
FN:490,_ZNSt3__16vectorIN11GrammarRule6SymbolENS_9allocatorIS2_EEEC2Ev
FN:490,_ZNSt3__16vectorIN11GrammarRule6SymbolENS_9allocatorIS2_EEEC1Ev
FN:649,_ZNKSt3__16vectorIN11GrammarRule6SymbolENS_9allocatorIS2_EEE4sizeEv
FN:652,_ZNKSt3__16vectorIN11GrammarRule6SymbolENS_9allocatorIS2_EEE8capacityEv
FN:676,_ZNSt3__16vectorIN11GrammarRule6SymbolENS_9allocatorIS2_EEE4backEv
FN:691,_ZNKSt3__16vectorIN11GrammarRule6SymbolENS_9allocatorIS2_EEE4dataEv
FN:763,_ZNSt3__16vectorIN11GrammarRule6SymbolENS_9allocatorIS2_EEE5clearEv
FN:823,_ZNSt3__16vectorIN11GrammarRule6SymbolENS_9allocatorIS2_EEE17__destruct_at_endEPS2_
FN:855,_ZNKSt3__16vectorIN11GrammarRule6SymbolENS_9allocatorIS2_EEE31__annotate_contiguous_containerEPKvS7_S7_S7_
FN:859,_ZNKSt3__16vectorIN11GrammarRule6SymbolENS_9allocatorIS2_EEE14__annotate_newEm
FN:865,_ZNKSt3__16vectorIN11GrammarRule6SymbolENS_9allocatorIS2_EEE17__annotate_deleteEv
FN:878,_ZNKSt3__16vectorIN11GrammarRule6SymbolENS_9allocatorIS2_EEE17__annotate_shrinkEm
FN:903,_ZNSt3__16vectorIN11GrammarRule6SymbolENS_9allocatorIS2_EEE24__RAII_IncreaseAnnotatorC1ERKS5_m
FN:903,_ZNSt3__16vectorIN11GrammarRule6SymbolENS_9allocatorIS2_EEE24__RAII_IncreaseAnnotatorC2ERKS5_m
FN:904,_ZNSt3__16vectorIN11GrammarRule6SymbolENS_9allocatorIS2_EEE24__RAII_IncreaseAnnotator6__doneEv
FN:928,_ZNSt3__16vectorIN11GrammarRule6SymbolENS_9allocatorIS2_EEE26__swap_out_circular_bufferERNS_14__split_bufferIS2_RS4_EE
FN:966,_ZNSt3__16vectorIN11GrammarRule6SymbolENS_9allocatorIS2_EEE11__vallocateEm
FN:977,_ZNSt3__16vectorIN11GrammarRule6SymbolENS_9allocatorIS2_EEE13__vdeallocateEv
FN:989,_ZNKSt3__16vectorIN11GrammarRule6SymbolENS_9allocatorIS2_EEE8max_sizeEv
FN:999,_ZNKSt3__16vectorIN11GrammarRule6SymbolENS_9allocatorIS2_EEE11__recommendEm
FN:1059,_ZNSt3__16vectorIN11GrammarRule6SymbolENS_9allocatorIS2_EEE18__construct_at_endIPS2_EENS_9enable_ifIXsr21__is_forward_iteratorIT_EE5valueEvE4typeES9_S9_m
FN:1387,_ZNSt3__16vectorIN11GrammarRule6SymbolENS_9allocatorIS2_EEEaSERKS5_
FN:1425,_ZNSt3__16vectorIN11GrammarRule6SymbolENS_9allocatorIS2_EEE6assignIPS2_EENS_9enable_ifIXaasr21__is_forward_iteratorIT_EE5valuesr16is_constructibleIS2_NS_15iterator_traitsIS9_E9referenceEEE5valueEvE4typeES9_S9_
FN:1490,_ZNKSt3__16vectorIN11GrammarRule6SymbolENS_9allocatorIS2_EEE11__make_iterEPKS2_
FN:1510,_ZNKSt3__16vectorIN11GrammarRule6SymbolENS_9allocatorIS2_EEE5beginEv
FN:1526,_ZNKSt3__16vectorIN11GrammarRule6SymbolENS_9allocatorIS2_EEE3endEv
FN:1543,_ZNKSt3__16vectorIN11GrammarRule6SymbolENS_9allocatorIS2_EEEixEm
FN:1658,_ZNSt3__16vectorIN11GrammarRule6SymbolENS_9allocatorIS2_EEE24__emplace_back_slow_pathIJRKcEEEvDpOT_
FN:1676,_ZNSt3__16vectorIN11GrammarRule6SymbolENS_9allocatorIS2_EEE12emplace_backIJRKcEEERS2_DpOT_
FN:2139,_ZNSt3__16vectorIN11GrammarRule6SymbolENS_9allocatorIS2_EEE26__invalidate_all_iteratorsEv
FN:2150,_ZNSt3__16vectorIN11GrammarRule6SymbolENS_9allocatorIS2_EEE27__invalidate_iterators_pastEPS2_
FN:3340,_ZNSt3__1eqIN11GrammarRule6SymbolENS_9allocatorIS2_EEEEbRKNS_6vectorIT_T0_EESA_
FNDA:172,_ZNSt3__120__vector_base_commonILb1EEC2Ev
FNDA:258,_ZNSt3__113__vector_baseIN11GrammarRule6SymbolENS_9allocatorIS2_EEE7__allocEv
FNDA:0,_ZNKSt3__113__vector_baseIN11GrammarRule6SymbolENS_9allocatorIS2_EEE7__allocEv
FNDA:258,_ZNSt3__113__vector_baseIN11GrammarRule6SymbolENS_9allocatorIS2_EEE9__end_capEv
FNDA:1179,_ZNKSt3__113__vector_baseIN11GrammarRule6SymbolENS_9allocatorIS2_EEE9__end_capEv
FNDA:0,_ZNSt3__113__vector_baseIN11GrammarRule6SymbolENS_9allocatorIS2_EEE5clearEv
FNDA:1179,_ZNKSt3__113__vector_baseIN11GrammarRule6SymbolENS_9allocatorIS2_EEE8capacityEv
FNDA:282,_ZNSt3__113__vector_baseIN11GrammarRule6SymbolENS_9allocatorIS2_EEE19__copy_assign_allocERKS5_
FNDA:282,_ZNSt3__113__vector_baseIN11GrammarRule6SymbolENS_9allocatorIS2_EEE19__copy_assign_allocERKS5_NS_17integral_constantIbLb0EEE
FNDA:202,_ZNSt3__113__vector_baseIN11GrammarRule6SymbolENS_9allocatorIS2_EEE17__destruct_at_endEPS2_
FNDA:172,_ZNSt3__113__vector_baseIN11GrammarRule6SymbolENS_9allocatorIS2_EEEC2Ev
FNDA:0,_ZNSt3__113__vector_baseIN11GrammarRule6SymbolENS_9allocatorIS2_EEED2Ev
FNDA:0,_ZNSt3__16vectorIN11GrammarRule6SymbolENS_9allocatorIS2_EEED1Ev
FNDA:0,_ZNSt3__16vectorIN11GrammarRule6SymbolENS_9allocatorIS2_EEED2Ev
FNDA:172,_ZNSt3__16vectorIN11GrammarRule6SymbolENS_9allocatorIS2_EEEC1Ev
FNDA:172,_ZNSt3__16vectorIN11GrammarRule6SymbolENS_9allocatorIS2_EEEC2Ev
FNDA:263690,_ZNKSt3__16vectorIN11GrammarRule6SymbolENS_9allocatorIS2_EEE4sizeEv
FNDA:1179,_ZNKSt3__16vectorIN11GrammarRule6SymbolENS_9allocatorIS2_EEE8capacityEv
FNDA:135,_ZNSt3__16vectorIN11GrammarRule6SymbolENS_9allocatorIS2_EEE4backEv
FNDA:1792,_ZNKSt3__16vectorIN11GrammarRule6SymbolENS_9allocatorIS2_EEE4dataEv
FNDA:0,_ZNSt3__16vectorIN11GrammarRule6SymbolENS_9allocatorIS2_EEE5clearEv
FNDA:202,_ZNSt3__16vectorIN11GrammarRule6SymbolENS_9allocatorIS2_EEE17__destruct_at_endEPS2_
FNDA:448,_ZNKSt3__16vectorIN11GrammarRule6SymbolENS_9allocatorIS2_EEE31__annotate_contiguous_containerEPKvS7_S7_S7_
FNDA:123,_ZNKSt3__16vectorIN11GrammarRule6SymbolENS_9allocatorIS2_EEE14__annotate_newEm
FNDA:123,_ZNKSt3__16vectorIN11GrammarRule6SymbolENS_9allocatorIS2_EEE17__annotate_deleteEv
FNDA:202,_ZNKSt3__16vectorIN11GrammarRule6SymbolENS_9allocatorIS2_EEE17__annotate_shrinkEm
FNDA:12,_ZNSt3__16vectorIN11GrammarRule6SymbolENS_9allocatorIS2_EEE24__RAII_IncreaseAnnotatorC1ERKS5_m
FNDA:12,_ZNSt3__16vectorIN11GrammarRule6SymbolENS_9allocatorIS2_EEE24__RAII_IncreaseAnnotatorC2ERKS5_m
FNDA:12,_ZNSt3__16vectorIN11GrammarRule6SymbolENS_9allocatorIS2_EEE24__RAII_IncreaseAnnotator6__doneEv
FNDA:123,_ZNSt3__16vectorIN11GrammarRule6SymbolENS_9allocatorIS2_EEE26__swap_out_circular_bufferERNS_14__split_bufferIS2_RS4_EE
FNDA:0,_ZNSt3__16vectorIN11GrammarRule6SymbolENS_9allocatorIS2_EEE11__vallocateEm
FNDA:80,_ZNSt3__16vectorIN11GrammarRule6SymbolENS_9allocatorIS2_EEE13__vdeallocateEv
FNDA:0,_ZNKSt3__16vectorIN11GrammarRule6SymbolENS_9allocatorIS2_EEE8max_sizeEv
FNDA:203,_ZNKSt3__16vectorIN11GrammarRule6SymbolENS_9allocatorIS2_EEE11__recommendEm
FNDA:0,_ZNSt3__16vectorIN11GrammarRule6SymbolENS_9allocatorIS2_EEE18__construct_at_endIPS2_EENS_9enable_ifIXsr21__is_forward_iteratorIT_EE5valueEvE4typeES9_S9_m
FNDA:282,_ZNSt3__16vectorIN11GrammarRule6SymbolENS_9allocatorIS2_EEEaSERKS5_
FNDA:282,_ZNSt3__16vectorIN11GrammarRule6SymbolENS_9allocatorIS2_EEE6assignIPS2_EENS_9enable_ifIXaasr21__is_forward_iteratorIT_EE5valuesr16is_constructibleIS2_NS_15iterator_traitsIS9_E9referenceEEE5valueEvE4typeES9_S9_
FNDA:105,_ZNKSt3__16vectorIN11GrammarRule6SymbolENS_9allocatorIS2_EEE11__make_iterEPKS2_
FNDA:70,_ZNKSt3__16vectorIN11GrammarRule6SymbolENS_9allocatorIS2_EEE5beginEv
FNDA:35,_ZNKSt3__16vectorIN11GrammarRule6SymbolENS_9allocatorIS2_EEE3endEv
FNDA:327080,_ZNKSt3__16vectorIN11GrammarRule6SymbolENS_9allocatorIS2_EEEixEm
FNDA:123,_ZNSt3__16vectorIN11GrammarRule6SymbolENS_9allocatorIS2_EEE24__emplace_back_slow_pathIJRKcEEEvDpOT_
FNDA:135,_ZNSt3__16vectorIN11GrammarRule6SymbolENS_9allocatorIS2_EEE12emplace_backIJRKcEEERS2_DpOT_
FNDA:405,_ZNSt3__16vectorIN11GrammarRule6SymbolENS_9allocatorIS2_EEE26__invalidate_all_iteratorsEv
FNDA:202,_ZNSt3__16vectorIN11GrammarRule6SymbolENS_9allocatorIS2_EEE27__invalidate_iterators_pastEPS2_
FNDA:35,_ZNSt3__1eqIN11GrammarRule6SymbolENS_9allocatorIS2_EEEEbRKNS_6vectorIT_T0_EESA_
FNF:46
FNH:37
DA:298,172
DA:343,258
DA:346,0
DA:349,258
DA:352,1179
DA:355,172
DA:364,0
DA:367,1179
DA:374,282
DA:375,282
DA:399,282
DA:419,202
DA:420,404
DA:421,0
DA:422,202
DA:423,202
DA:429,172
DA:430,172
DA:431,172
DA:432,172
DA:433,172
DA:456,0
DA:458,0
DA:459,0
DA:460,0
DA:461,0
DA:464,0
DA:490,172
DA:491,344
DA:495,344
DA:650,263690
DA:653,1179
DA:679,135
DA:692,1792
DA:765,0
DA:766,0
DA:767,0
DA:768,0
DA:769,0
DA:825,202
DA:826,202
DA:827,202
DA:828,202
DA:829,202
DA:856,448
DA:860,246
DA:861,123
DA:862,123
DA:866,246
DA:867,123
DA:868,123
DA:880,404
DA:881,202
DA:882,202
DA:903,24
DA:904,12
DA:930,123
DA:931,123
DA:932,123
DA:933,123
DA:934,123
DA:935,123
DA:936,123
DA:937,123
DA:938,123
DA:968,0
DA:969,0
DA:970,0
DA:971,0
DA:972,0
DA:973,0
DA:979,80
DA:981,0
DA:982,0
DA:983,0
DA:984,0
DA:985,80
DA:991,0
DA:992,0
DA:1001,203
DA:1002,203
DA:1003,0
DA:1004,203
DA:1005,203
DA:1006,0
DA:1007,203
DA:1008,203
DA:1061,0
DA:1062,0
DA:1063,0
DA:1064,0
DA:1065,0
DA:1389,282
DA:1391,282
DA:1392,282
DA:1393,282
DA:1394,282
DA:1427,282
DA:1428,282
DA:1430,202
DA:1431,202
DA:1432,202
DA:1434,0
DA:1435,0
DA:1436,0
DA:1437,0
DA:1438,202
DA:1439,202
DA:1440,0
DA:1442,202
DA:1443,202
DA:1446,80
DA:1447,80
DA:1448,80
DA:1450,282
DA:1451,282
DA:1495,105
DA:1512,70
DA:1528,35
DA:1546,327080
DA:1660,123
DA:1661,123
DA:1663,123
DA:1664,123
DA:1665,123
DA:1666,123
DA:1678,135
DA:1680,12
DA:1681,24
DA:1682,12
DA:1683,12
DA:1684,12
DA:1685,12
DA:1686,12
DA:1688,123
DA:1690,135
DA:2144,405
DA:2166,202
DA:3342,35
DA:3343,105
LF:140
LH:102
end_of_record
SF:/Users/evgenabramov/MIPT-Formal-Practice2/GrammarRule.cpp
FN:3,__cxx_global_var_init
FN:5,_ZN11GrammarRuleC1ERKNSt3__112basic_stringIcNS0_11char_traitsIcEENS0_9allocatorIcEEEES8_
FN:5,_ZN11GrammarRuleC2ERKNSt3__112basic_stringIcNS0_11char_traitsIcEENS0_9allocatorIcEEEES8_
FN:27,_ZN11GrammarRuleC2ERKNSt3__112basic_stringIcNS0_11char_traitsIcEENS0_9allocatorIcEEEE
FN:27,_ZN11GrammarRuleC1ERKNSt3__112basic_stringIcNS0_11char_traitsIcEENS0_9allocatorIcEEEE
FN:37,_ZNK11GrammarRule6SymboleqERKS0_
FN:41,_ZNK11GrammarRuleeqERKS_
FN:45,_ZNK11GrammarRuleltERKS_
FNDA:1,__cxx_global_var_init
FNDA:86,_ZN11GrammarRuleC2ERKNSt3__112basic_stringIcNS0_11char_traitsIcEENS0_9allocatorIcEEEES8_
FNDA:86,_ZN11GrammarRuleC1ERKNSt3__112basic_stringIcNS0_11char_traitsIcEENS0_9allocatorIcEEEES8_
FNDA:86,_ZN11GrammarRuleC2ERKNSt3__112basic_stringIcNS0_11char_traitsIcEENS0_9allocatorIcEEEE
FNDA:86,_ZN11GrammarRuleC1ERKNSt3__112basic_stringIcNS0_11char_traitsIcEENS0_9allocatorIcEEEE
FNDA:133,_ZNK11GrammarRule6SymboleqERKS0_
FNDA:98,_ZNK11GrammarRuleeqERKS_
FNDA:79757,_ZNK11GrammarRuleltERKS_
FNF:8
FNH:8
DA:3,2
DA:5,172
DA:6,86
DA:7,0
DA:11,86
DA:12,0
DA:16,172
DA:17,86
DA:18,0
DA:22,712
DA:23,135
DA:25,172
DA:27,172
DA:28,86
DA:29,0
DA:32,86
DA:33,344
DA:34,86
DA:35,172
DA:38,133
DA:42,231
DA:46,79757
DA:47,4655
DA:49,75102
DA:50,439398
DA:51,163540
DA:52,18943
DA:54,144597
DA:55,56159
DA:56,79757
LF:30
LH:26
end_of_record
SF:/Users/evgenabramov/MIPT-Formal-Practice2/GrammarRule.h
FN:8,_ZN11GrammarRuleD2Ev
FN:8,_ZN11GrammarRuleaSERKS_
FN:8,_ZN11GrammarRuleD1Ev
FN:22,_ZN11GrammarRule6SymbolC2Ec
FN:22,_ZN11GrammarRule6SymbolC1Ec
FNDA:282,_ZN11GrammarRuleaSERKS_
FNDA:0,_ZN11GrammarRuleD1Ev
FNDA:0,_ZN11GrammarRuleD2Ev
FNDA:221,_ZN11GrammarRule6SymbolC1Ec
FNDA:221,_ZN11GrammarRule6SymbolC2Ec
FNF:5
FNH:3
DA:8,282
DA:22,221
DA:23,442
LF:3
LH:3
end_of_record
SF:/Users/evgenabramov/MIPT-Formal-Practice2/GrammarRule.h
DA:8,0
DA:13,0
LF:2
LH:0
end_of_record
SF:/Library/Developer/CommandLineTools/usr/include/c++/v1/__split_buffer
DA:56,43
DA:58,34
DA:59,9
DA:88,17
DA:91,9
DA:141,17
DA:200,17
DA:201,17
DA:203,138
DA:204,138
DA:205,138
DA:206,276
DA:207,17
DA:295,34
DA:296,0
DA:297,17
DA:309,17
DA:310,34
DA:311,51
DA:312,17
DA:313,17
DA:314,34
DA:340,17
DA:341,17
DA:342,17
DA:343,18
DA:344,34
LF:27
LH:26
end_of_record
SF:/Library/Developer/CommandLineTools/usr/include/c++/v1/algorithm
DA:721,42
DA:998,234
DA:999,168
DA:1000,28
DA:1001,47
DA:1693,117
DA:1743,470
DA:1744,196
DA:1745,39
DA:1758,0
DA:1759,0
DA:1760,0
DA:1761,0
DA:1769,39
DA:2562,51
DA:2570,17
DA:2627,75
DA:2635,25
LF:18
LH:14
end_of_record
SF:/Library/Developer/CommandLineTools/usr/include/c++/v1/iterator
DA:557,0
DA:558,0
DA:565,0
DA:566,0
DA:584,47
DA:592,47
DA:1356,11689
DA:1372,11689
DA:1373,11689
DA:1413,26392
DA:1422,6028
DA:1509,13196
DA:1561,13196
LF:13
LH:9
end_of_record
SF:/Library/Developer/CommandLineTools/usr/include/c++/v1/limits
DA:213,34
DA:450,34
LF:2
LH:2
end_of_record
SF:/Library/Developer/CommandLineTools/usr/include/c++/v1/memory
DA:989,25598
DA:1107,1024
DA:1546,8518
DA:1554,6525
DA:1560,17538
DA:1561,17538
DA:1595,6792
DA:1599,17
DA:1604,0
DA:1605,0
DA:1606,0
DA:1644,0
DA:1645,0
DA:1646,0
DA:1663,0
DA:1664,0
DA:1666,0
DA:1667,0
DA:1668,0
DA:1669,0
DA:1677,34
DA:1679,0
DA:1680,0
DA:1682,17
DA:1717,8769
DA:1742,276
DA:1747,6516
DA:1748,6516
DA:1752,17
DA:1764,0
DA:1797,315
DA:1810,8518
DA:1811,0
DA:1813,8518
DA:1816,13050
DA:1818,8535
DA:1825,8769
DA:1826,8769
DA:1880,276
DA:2139,315
DA:2147,17304
DA:2160,44373
DA:2162,40912
DA:2176,315
DA:2184,268
DA:2198,59786
DA:2200,17
DA:2230,630
DA:2247,17572
DA:2276,29313
DA:2281,40912
DA:2286,74846
DA:2291,17
DA:2479,17002
DA:2482,17002
DA:2602,17002
DA:2617,16100
DA:2621,1985
DA:2625,8501
DA:2638,1985
DA:2639,1985
DA:2640,1985
DA:2645,8501
DA:2646,8501
DA:2647,8501
DA:2648,6516
DA:2649,8501
LF:67
LH:51
end_of_record
SF:/Library/Developer/CommandLineTools/usr/include/c++/v1/new
DA:230,15043
DA:238,8518
DA:239,0
DA:243,0
DA:252,8518
DA:254,8518
DA:258,6525
DA:259,0
DA:263,0
DA:272,6525
DA:274,6525
LF:11
LH:7
end_of_record
SF:/Library/Developer/CommandLineTools/usr/include/c++/v1/stdexcept
DA:136,0
DA:225,0
DA:230,0
LF:3
LH:0
end_of_record
SF:/Library/Developer/CommandLineTools/usr/include/c++/v1/string
DA:828,47
DA:941,1227
DA:1406,1221
DA:1458,409
DA:1468,0
DA:1485,0
DA:1491,812
DA:1497,2436
DA:1505,94
DA:1506,752
DA:1507,282
DA:1508,94
DA:1854,94
DA:1855,188
DA:1856,94
DA:1862,188
DA:1912,94
DA:1913,47
DA:1917,94
DA:3164,812
DA:4098,47
DA:4106,47
DA:4107,47
LF:23
LH:21
end_of_record
SF:/Library/Developer/CommandLineTools/usr/include/c++/v1/type_traits
DA:451,74975
DA:2291,12890
DA:2299,237913
DA:4504,51
DA:4505,51
DA:4506,51
DA:4507,51
LF:7
LH:7
end_of_record
SF:/Library/Developer/CommandLineTools/usr/include/c++/v1/vector
DA:298,0
DA:343,340
DA:346,17
DA:349,64
DA:352,226
DA:359,0
DA:364,47
DA:367,226
DA:374,47
DA:375,47
DA:399,47
DA:419,86
DA:420,724
DA:421,276
DA:422,86
DA:423,86
DA:448,0
DA:449,0
DA:450,0
DA:456,0
DA:458,0
DA:459,0
DA:460,0
DA:461,0
DA:464,0
DA:650,326
DA:653,226
DA:692,480
DA:765,47
DA:766,47
DA:767,47
DA:768,47
DA:769,47
DA:825,39
DA:826,39
DA:827,39
DA:828,39
DA:829,39
DA:856,120
DA:860,34
DA:861,17
DA:862,17
DA:866,34
DA:867,17
DA:868,17
DA:880,172
DA:881,86
DA:882,86
DA:903,260
DA:904,130
DA:930,17
DA:931,17
DA:932,17
DA:933,17
DA:934,17
DA:935,17
DA:936,17
DA:937,17
DA:938,17
DA:968,0
DA:969,0
DA:970,0
DA:971,0
DA:972,0
DA:973,0
DA:979,8
DA:981,0
DA:982,0
DA:983,0
DA:984,0
DA:985,8
DA:991,51
DA:992,17
DA:1001,25
DA:1002,25
DA:1003,0
DA:1004,25
DA:1005,25
DA:1006,0
DA:1007,25
DA:1008,25
DA:1019,30
DA:1020,30
DA:1022,130
DA:1023,130
DA:1024,130
DA:1025,130
DA:1026,130
DA:1027,260
DA:1028,30
DA:1061,0
DA:1062,0
DA:1063,0
DA:1064,0
DA:1065,0
DA:1075,47
DA:1076,30
DA:1079,17
DA:1080,17
DA:1081,17
DA:1082,17
DA:1083,17
DA:1084,47
DA:1237,0
DA:1238,0
DA:1242,0
DA:1243,0
DA:1245,0
DA:1246,0
DA:1247,0
DA:1248,0
DA:1389,47
DA:1391,47
DA:1392,47
DA:1393,47
DA:1394,47
DA:1427,47
DA:1428,47
DA:1430,39
DA:1431,39
DA:1432,39
DA:1434,0
DA:1435,0
DA:1436,0
DA:1437,0
DA:1438,39
DA:1439,39
DA:1440,0
DA:1442,39
DA:1443,39
DA:1446,8
DA:1447,8
DA:1448,8
DA:1450,47
DA:1451,47
DA:1483,3014
DA:1504,1507
DA:1520,1507
DA:1537,14100
DA:2039,47
DA:2040,47
DA:2041,47
DA:2042,0
DA:2043,0
DA:2044,47
DA:2144,111
DA:2166,39
LF:147
LH:104
end_of_record
TN:
SF:/Users/evgenabramov/MIPT-Formal-Practice2/googletest-master/googletest/include/gtest/gtest.h
FN:2578,_Z13RUN_ALL_TESTSv
FNDA:1,_Z13RUN_ALL_TESTSv
FNF:1
FNH:1
DA:2579,2
LF:1
LH:1
end_of_record
SF:/Users/evgenabramov/MIPT-Formal-Practice2/test.cpp
FN:3,main
FNDA:1,main
FNF:1
FNH:1
DA:4,1
DA:5,1
LF:2
LH:2
end_of_record
TN:
SF:/Library/Developer/CommandLineTools/usr/include/c++/v1/algorithm
FN:721,_ZNKSt3__16__lessImmEclERKmS3_
FN:2560,_ZNSt3__1L3minImNS_6__lessImmEEEERKT_S5_S5_T0_
FN:2568,_ZNSt3__1L3minImEERKT_S3_S3_
FNDA:0,_ZNKSt3__16__lessImmEclERKmS3_
FNDA:0,_ZNSt3__1L3minImNS_6__lessImmEEEERKT_S5_S5_T0_
FNDA:0,_ZNSt3__1L3minImEERKT_S3_S3_
FNF:3
FNH:0
DA:721,0
DA:2562,0
DA:2570,0
LF:3
LH:0
end_of_record
SF:/Library/Developer/CommandLineTools/usr/include/c++/v1/limits
FN:213,_ZNSt3__123__libcpp_numeric_limitsIlLb1EE3maxEv
FN:450,_ZNSt3__114numeric_limitsIlE3maxEv
FNDA:0,_ZNSt3__123__libcpp_numeric_limitsIlLb1EE3maxEv
FNDA:0,_ZNSt3__114numeric_limitsIlE3maxEv
FNF:2
FNH:0
DA:213,0
DA:450,0
LF:2
LH:0
end_of_record
SF:/Library/Developer/CommandLineTools/usr/include/c++/v1/memory
FN:1105,_ZNSt3__1L16__to_raw_pointerIN11GrammarRule6SymbolEEEPT_S4_
FN:1545,_ZNSt3__116allocator_traitsINS_9allocatorIN11GrammarRule6SymbolEEEE8allocateERS4_m
FN:1553,_ZNSt3__116allocator_traitsINS_9allocatorIN11GrammarRule6SymbolEEEE10deallocateERS4_PS3_m
FN:1594,_ZNSt3__116allocator_traitsINS_9allocatorIN11GrammarRule6SymbolEEEE7destroyIS3_EEvRS4_PT_
FN:1598,_ZNSt3__116allocator_traitsINS_9allocatorIN11GrammarRule6SymbolEEEE8max_sizeERKS4_
FN:1603,_ZNSt3__116allocator_traitsINS_9allocatorIN11GrammarRule6SymbolEEEE37select_on_container_copy_constructionERKS4_
FN:1661,_ZNSt3__116allocator_traitsINS_9allocatorIN11GrammarRule6SymbolEEEE25__construct_range_forwardIS3_S3_S3_S3_EENS_9enable_ifIXaaaasr31is_trivially_move_constructibleIT0_EE5valuesr7is_sameIT1_T2_EE5valueooL_ZNS_17integral_constantIbLb1EE5valueEEntsr15__has_constructIS4_PS8_RT_EE5valueEvE4typeERS4_PSE_SJ_RSD_
FN:1741,_ZNSt3__116allocator_traitsINS_9allocatorIN11GrammarRule6SymbolEEEE9__destroyIS3_EEvNS_17integral_constantIbLb1EEERS4_PT_
FN:1751,_ZNSt3__116allocator_traitsINS_9allocatorIN11GrammarRule6SymbolEEEE10__max_sizeENS_17integral_constantIbLb1EEERKS4_
FN:1763,_ZNSt3__116allocator_traitsINS_9allocatorIN11GrammarRule6SymbolEEEE39__select_on_container_copy_constructionENS_17integral_constantIbLb0EEERKS4_
FN:1808,_ZNSt3__19allocatorIN11GrammarRule6SymbolEE8allocateEmPKv
FN:1815,_ZNSt3__19allocatorIN11GrammarRule6SymbolEE10deallocateEPS2_m
FN:1817,_ZNKSt3__19allocatorIN11GrammarRule6SymbolEE8max_sizeEv
FN:1880,_ZNSt3__19allocatorIN11GrammarRule6SymbolEE7destroyEPS2_
FN:2146,_ZNSt3__122__compressed_pair_elemIPN11GrammarRule6SymbolELi0ELb0EEC2IDnvEEOT_
FN:2160,_ZNSt3__122__compressed_pair_elemIPN11GrammarRule6SymbolELi0ELb0EE5__getEv
FN:2162,_ZNKSt3__122__compressed_pair_elemIPN11GrammarRule6SymbolELi0ELb0EE5__getEv
FN:2183,_ZNSt3__122__compressed_pair_elemINS_9allocatorIN11GrammarRule6SymbolEEELi1ELb1EEC2IS4_vEEOT_
FN:2198,_ZNSt3__122__compressed_pair_elemINS_9allocatorIN11GrammarRule6SymbolEEELi1ELb1EE5__getEv
FN:2200,_ZNKSt3__122__compressed_pair_elemINS_9allocatorIN11GrammarRule6SymbolEEELi1ELb1EE5__getEv
FN:2246,_ZNSt3__117__compressed_pairIPN11GrammarRule6SymbolENS_9allocatorIS2_EEEC1IDnS5_EEOT_OT0_
FN:2246,_ZNSt3__117__compressed_pairIPN11GrammarRule6SymbolENS_9allocatorIS2_EEEC2IDnS5_EEOT_OT0_
FN:2275,_ZNSt3__117__compressed_pairIPN11GrammarRule6SymbolENS_9allocatorIS2_EEE5firstEv
FN:2280,_ZNKSt3__117__compressed_pairIPN11GrammarRule6SymbolENS_9allocatorIS2_EEE5firstEv
FN:2285,_ZNSt3__117__compressed_pairIPN11GrammarRule6SymbolENS_9allocatorIS2_EEE6secondEv
FN:2290,_ZNKSt3__117__compressed_pairIPN11GrammarRule6SymbolENS_9allocatorIS2_EEE6secondEv
FNDA:0,_ZNSt3__1L16__to_raw_pointerIN11GrammarRule6SymbolEEEPT_S4_
FNDA:0,_ZNSt3__116allocator_traitsINS_9allocatorIN11GrammarRule6SymbolEEEE8allocateERS4_m
FNDA:0,_ZNSt3__116allocator_traitsINS_9allocatorIN11GrammarRule6SymbolEEEE10deallocateERS4_PS3_m
FNDA:0,_ZNSt3__116allocator_traitsINS_9allocatorIN11GrammarRule6SymbolEEEE7destroyIS3_EEvRS4_PT_
FNDA:0,_ZNSt3__116allocator_traitsINS_9allocatorIN11GrammarRule6SymbolEEEE8max_sizeERKS4_
FNDA:0,_ZNSt3__116allocator_traitsINS_9allocatorIN11GrammarRule6SymbolEEEE37select_on_container_copy_constructionERKS4_
FNDA:0,_ZNSt3__116allocator_traitsINS_9allocatorIN11GrammarRule6SymbolEEEE25__construct_range_forwardIS3_S3_S3_S3_EENS_9enable_ifIXaaaasr31is_trivially_move_constructibleIT0_EE5valuesr7is_sameIT1_T2_EE5valueooL_ZNS_17integral_constantIbLb1EE5valueEEntsr15__has_constructIS4_PS8_RT_EE5valueEvE4typeERS4_PSE_SJ_RSD_
FNDA:0,_ZNSt3__116allocator_traitsINS_9allocatorIN11GrammarRule6SymbolEEEE9__destroyIS3_EEvNS_17integral_constantIbLb1EEERS4_PT_
FNDA:0,_ZNSt3__116allocator_traitsINS_9allocatorIN11GrammarRule6SymbolEEEE10__max_sizeENS_17integral_constantIbLb1EEERKS4_
FNDA:0,_ZNSt3__116allocator_traitsINS_9allocatorIN11GrammarRule6SymbolEEEE39__select_on_container_copy_constructionENS_17integral_constantIbLb0EEERKS4_
FNDA:0,_ZNSt3__19allocatorIN11GrammarRule6SymbolEE8allocateEmPKv
FNDA:0,_ZNSt3__19allocatorIN11GrammarRule6SymbolEE10deallocateEPS2_m
FNDA:0,_ZNKSt3__19allocatorIN11GrammarRule6SymbolEE8max_sizeEv
FNDA:0,_ZNSt3__19allocatorIN11GrammarRule6SymbolEE7destroyEPS2_
FNDA:0,_ZNSt3__122__compressed_pair_elemIPN11GrammarRule6SymbolELi0ELb0EEC2IDnvEEOT_
FNDA:0,_ZNSt3__122__compressed_pair_elemIPN11GrammarRule6SymbolELi0ELb0EE5__getEv
FNDA:0,_ZNKSt3__122__compressed_pair_elemIPN11GrammarRule6SymbolELi0ELb0EE5__getEv
FNDA:0,_ZNSt3__122__compressed_pair_elemINS_9allocatorIN11GrammarRule6SymbolEEELi1ELb1EEC2IS4_vEEOT_
FNDA:0,_ZNSt3__122__compressed_pair_elemINS_9allocatorIN11GrammarRule6SymbolEEELi1ELb1EE5__getEv
FNDA:0,_ZNKSt3__122__compressed_pair_elemINS_9allocatorIN11GrammarRule6SymbolEEELi1ELb1EE5__getEv
FNDA:0,_ZNSt3__117__compressed_pairIPN11GrammarRule6SymbolENS_9allocatorIS2_EEEC1IDnS5_EEOT_OT0_
FNDA:0,_ZNSt3__117__compressed_pairIPN11GrammarRule6SymbolENS_9allocatorIS2_EEEC2IDnS5_EEOT_OT0_
FNDA:0,_ZNSt3__117__compressed_pairIPN11GrammarRule6SymbolENS_9allocatorIS2_EEE5firstEv
FNDA:0,_ZNKSt3__117__compressed_pairIPN11GrammarRule6SymbolENS_9allocatorIS2_EEE5firstEv
FNDA:0,_ZNSt3__117__compressed_pairIPN11GrammarRule6SymbolENS_9allocatorIS2_EEE6secondEv
FNDA:0,_ZNKSt3__117__compressed_pairIPN11GrammarRule6SymbolENS_9allocatorIS2_EEE6secondEv
FNF:26
FNH:0
DA:1107,0
DA:1546,0
DA:1554,0
DA:1595,0
DA:1599,0
DA:1604,0
DA:1605,0
DA:1606,0
DA:1663,0
DA:1664,0
DA:1666,0
DA:1667,0
DA:1668,0
DA:1669,0
DA:1742,0
DA:1752,0
DA:1764,0
DA:1810,0
DA:1811,0
DA:1813,0
DA:1816,0
DA:1818,0
DA:1880,0
DA:2147,0
DA:2160,0
DA:2162,0
DA:2184,0
DA:2198,0
DA:2200,0
DA:2247,0
DA:2276,0
DA:2281,0
DA:2286,0
DA:2291,0
LF:34
LH:0
end_of_record
SF:/Library/Developer/CommandLineTools/usr/include/c++/v1/new
FN:228,_ZNSt3__1L24__is_overaligned_for_newEm
FN:236,_ZNSt3__1L17__libcpp_allocateEmm
FN:256,_ZNSt3__1L19__libcpp_deallocateEPvm
FNDA:0,_ZNSt3__1L24__is_overaligned_for_newEm
FNDA:0,_ZNSt3__1L17__libcpp_allocateEmm
FNDA:0,_ZNSt3__1L19__libcpp_deallocateEPvm
FNF:3
FNH:0
DA:230,0
DA:238,0
DA:239,0
DA:243,0
DA:252,0
DA:254,0
DA:258,0
DA:259,0
DA:263,0
DA:272,0
DA:274,0
LF:11
LH:0
end_of_record
SF:/Library/Developer/CommandLineTools/usr/include/c++/v1/stdexcept
FN:136,_ZNSt12length_errorC2EPKc
FN:136,_ZNSt12length_errorC1EPKc
FN:222,_ZNSt3__1L20__throw_length_errorEPKc
FNDA:0,_ZNSt12length_errorC1EPKc
FNDA:0,_ZNSt12length_errorC2EPKc
FNDA:0,_ZNSt3__1L20__throw_length_errorEPKc
FNF:3
FNH:0
DA:136,0
DA:225,0
DA:230,0
LF:3
LH:0
end_of_record
SF:/Library/Developer/CommandLineTools/usr/include/c++/v1/tuple
FN:170,_ZNSt3__112__tuple_leafILm0E11GrammarRuleLb0EED2Ev
FN:220,_ZNSt3__112__tuple_leafILm1EmLb0EEC2IRKmvEEOT_
FN:220,_ZNSt3__112__tuple_leafILm2EmLb0EEC2IRKmvEEOT_
FN:220,_ZNSt3__112__tuple_leafILm0E11GrammarRuleLb0EEC2IRKS1_vEEOT_
FN:266,_ZNKSt3__112__tuple_leafILm1EmLb0EE3getEv
FN:266,_ZNKSt3__112__tuple_leafILm2EmLb0EE3getEv
FN:266,_ZNKSt3__112__tuple_leafILm0E11GrammarRuleLb0EE3getEv
FN:364,_ZNSt3__112__tuple_implINS_15__tuple_indicesIJLm0ELm1ELm2EEEEJ11GrammarRulemmEED1Ev
FN:364,_ZNSt3__112__tuple_implINS_15__tuple_indicesIJLm0ELm1ELm2EEEEJ11GrammarRulemmEED2Ev
FN:375,_ZNSt3__112__tuple_implINS_15__tuple_indicesIJLm0ELm1ELm2EEEEJ11GrammarRulemmEEC1IJLm0ELm1ELm2EEJS3_mmEJEJEJRKS3_RKmS9_EEENS1_IJXspT_EEEENS_13__tuple_typesIJDpT0_EEENS1_IJXspT1_EEEENSB_IJDpT2_EEEDpOT3_
FN:375,_ZNSt3__112__tuple_implINS_15__tuple_indicesIJLm0ELm1ELm2EEEEJ11GrammarRulemmEEC2IJLm0ELm1ELm2EEJS3_mmEJEJEJRKS3_RKmS9_EEENS1_IJXspT_EEEENS_13__tuple_typesIJDpT0_EEENS1_IJXspT1_EEEENSB_IJDpT2_EEEDpOT3_
FN:469,_ZNSt3__15tupleIJ11GrammarRulemmEED1Ev
FN:469,_ZNSt3__15tupleIJ11GrammarRulemmEED2Ev
FN:641,_ZNSt3__15tupleIJ11GrammarRulemmEEC1ILb1ELb0EEERKS1_RKmS7_
FN:641,_ZNSt3__15tupleIJ11GrammarRulemmEEC2ILb1ELb0EEERKS1_RKmS7_
FN:962,_ZNSt3__1L3getILm2EJ11GrammarRulemmEEERKNS_13tuple_elementIXT_ENS_5tupleIJDpT0_EEEE4typeERKS6_
FN:962,_ZNSt3__1L3getILm0EJ11GrammarRulemmEEERKNS_13tuple_elementIXT_ENS_5tupleIJDpT0_EEEE4typeERKS6_
FN:962,_ZNSt3__1L3getILm1EJ11GrammarRulemmEEERKNS_13tuple_elementIXT_ENS_5tupleIJDpT0_EEEE4typeERKS6_
FN:1101,_ZNSt3__1L10make_tupleIJRK11GrammarRuleRKmS5_EEENS_5tupleIJDpNS_19__make_tuple_returnIT_E4typeEEEEDpOS8_
FN:1157,_ZNSt3__112__tuple_lessILm1EEclINS_5tupleIJ11GrammarRulemmEEES5_EEbRKT_RKT0_
FN:1157,_ZNSt3__112__tuple_lessILm3EEclINS_5tupleIJ11GrammarRulemmEEES5_EEbRKT_RKT0_
FN:1157,_ZNSt3__112__tuple_lessILm2EEclINS_5tupleIJ11GrammarRulemmEEES5_EEbRKT_RKT0_
FN:1173,_ZNSt3__112__tuple_lessILm0EEclINS_5tupleIJ11GrammarRulemmEEES5_EEbRKT_RKT0_
FN:1182,_ZNSt3__1ltIJ11GrammarRulemmEJS1_mmEEEbRKNS_5tupleIJDpT_EEERKNS2_IJDpT0_EEE
FNDA:101890,_ZNSt3__112__tuple_leafILm0E11GrammarRuleLb0EED2Ev
FNDA:101890,_ZNSt3__112__tuple_leafILm0E11GrammarRuleLb0EEC2IRKS1_vEEOT_
FNDA:101890,_ZNSt3__112__tuple_leafILm1EmLb0EEC2IRKmvEEOT_
FNDA:101890,_ZNSt3__112__tuple_leafILm2EmLb0EEC2IRKmvEEOT_
FNDA:159514,_ZNKSt3__112__tuple_leafILm0E11GrammarRuleLb0EE3getEv
FNDA:84306,_ZNKSt3__112__tuple_leafILm1EmLb0EE3getEv
FNDA:64218,_ZNKSt3__112__tuple_leafILm2EmLb0EE3getEv
FNDA:101890,_ZNSt3__112__tuple_implINS_15__tuple_indicesIJLm0ELm1ELm2EEEEJ11GrammarRulemmEED1Ev
FNDA:101890,_ZNSt3__112__tuple_implINS_15__tuple_indicesIJLm0ELm1ELm2EEEEJ11GrammarRulemmEED2Ev
FNDA:101890,_ZNSt3__112__tuple_implINS_15__tuple_indicesIJLm0ELm1ELm2EEEEJ11GrammarRulemmEEC1IJLm0ELm1ELm2EEJS3_mmEJEJEJRKS3_RKmS9_EEENS1_IJXspT_EEEENS_13__tuple_typesIJDpT0_EEENS1_IJXspT1_EEEENSB_IJDpT2_EEEDpOT3_
FNDA:101890,_ZNSt3__112__tuple_implINS_15__tuple_indicesIJLm0ELm1ELm2EEEEJ11GrammarRulemmEEC2IJLm0ELm1ELm2EEJS3_mmEJEJEJRKS3_RKmS9_EEENS1_IJXspT_EEEENS_13__tuple_typesIJDpT0_EEENS1_IJXspT1_EEEENSB_IJDpT2_EEEDpOT3_
FNDA:101890,_ZNSt3__15tupleIJ11GrammarRulemmEED1Ev
FNDA:101890,_ZNSt3__15tupleIJ11GrammarRulemmEED2Ev
FNDA:101890,_ZNSt3__15tupleIJ11GrammarRulemmEEC1ILb1ELb0EEERKS1_RKmS7_
FNDA:101890,_ZNSt3__15tupleIJ11GrammarRulemmEEC2ILb1ELb0EEERKS1_RKmS7_
FNDA:159514,_ZNSt3__1L3getILm0EJ11GrammarRulemmEEERKNS_13tuple_elementIXT_ENS_5tupleIJDpT0_EEEE4typeERKS6_
FNDA:84306,_ZNSt3__1L3getILm1EJ11GrammarRulemmEEERKNS_13tuple_elementIXT_ENS_5tupleIJDpT0_EEEE4typeERKS6_
FNDA:64218,_ZNSt3__1L3getILm2EJ11GrammarRulemmEEERKNS_13tuple_elementIXT_ENS_5tupleIJDpT0_EEEE4typeERKS6_
FNDA:101890,_ZNSt3__1L10make_tupleIJRK11GrammarRuleRKmS5_EEENS_5tupleIJDpNS_19__make_tuple_returnIT_E4typeEEEEDpOS8_
FNDA:50945,_ZNSt3__112__tuple_lessILm3EEclINS_5tupleIJ11GrammarRulemmEEES5_EEbRKT_RKT0_
FNDA:22967,_ZNSt3__112__tuple_lessILm2EEclINS_5tupleIJ11GrammarRulemmEEES5_EEbRKT_RKT0_
FNDA:16313,_ZNSt3__112__tuple_lessILm1EEclINS_5tupleIJ11GrammarRulemmEEES5_EEbRKT_RKT0_
FNDA:15370,_ZNSt3__112__tuple_lessILm0EEclINS_5tupleIJ11GrammarRulemmEEES5_EEbRKT_RKT0_
FNDA:50945,_ZNSt3__1ltIJ11GrammarRulemmEJS1_mmEEEbRKNS_5tupleIJDpT_EEERKNS2_IJDpT0_EEE
FNF:24
FNH:24
DA:170,101890
DA:221,305670
DA:223,305670
DA:266,308038
DA:364,203780
DA:380,305670
DA:382,509450
DA:469,203780
DA:642,203780
DA:646,101890
DA:647,203780
DA:965,308038
DA:1103,101890
DA:1159,90225
DA:1160,90225
DA:1161,26431
DA:1162,63794
DA:1163,9144
DA:1164,54650
DA:1165,90225
DA:1175,15370
DA:1184,50945
LF:22
LH:22
end_of_record
SF:/Library/Developer/CommandLineTools/usr/include/c++/v1/type_traits
FN:2288,_ZNSt3__1L4moveIRNS_9allocatorIN11GrammarRule6SymbolEEEEEONS_16remove_referenceIT_E4typeEOS7_
FN:2297,_ZNSt3__1L7forwardIRK11GrammarRuleEEOT_RNS_16remove_referenceIS4_E4typeE
FN:2297,_ZNSt3__1L7forwardIRKmEEOT_RNS_16remove_referenceIS3_E4typeE
FN:2297,_ZNSt3__1L7forwardIDnEEOT_RNS_16remove_referenceIS1_E4typeE
FN:2297,_ZNSt3__1L7forwardINS_9allocatorIN11GrammarRule6SymbolEEEEEOT_RNS_16remove_referenceIS5_E4typeE
FNDA:0,_ZNSt3__1L4moveIRNS_9allocatorIN11GrammarRule6SymbolEEEEEONS_16remove_referenceIT_E4typeEOS7_
FNDA:0,_ZNSt3__1L7forwardIDnEEOT_RNS_16remove_referenceIS1_E4typeE
FNDA:0,_ZNSt3__1L7forwardINS_9allocatorIN11GrammarRule6SymbolEEEEEOT_RNS_16remove_referenceIS5_E4typeE
FNDA:305670,_ZNSt3__1L7forwardIRK11GrammarRuleEEOT_RNS_16remove_referenceIS4_E4typeE
FNDA:611340,_ZNSt3__1L7forwardIRKmEEOT_RNS_16remove_referenceIS3_E4typeE
FNF:5
FNH:2
DA:2291,0
DA:2299,917010
LF:2
LH:1
end_of_record
SF:/Library/Developer/CommandLineTools/usr/include/c++/v1/vector
FN:298,_ZNSt3__120__vector_base_commonILb1EEC2Ev
FN:342,_ZNSt3__113__vector_baseIN11GrammarRule6SymbolENS_9allocatorIS2_EEE7__allocEv
FN:345,_ZNKSt3__113__vector_baseIN11GrammarRule6SymbolENS_9allocatorIS2_EEE7__allocEv
FN:348,_ZNSt3__113__vector_baseIN11GrammarRule6SymbolENS_9allocatorIS2_EEE9__end_capEv
FN:351,_ZNKSt3__113__vector_baseIN11GrammarRule6SymbolENS_9allocatorIS2_EEE9__end_capEv
FN:364,_ZNSt3__113__vector_baseIN11GrammarRule6SymbolENS_9allocatorIS2_EEE5clearEv
FN:366,_ZNKSt3__113__vector_baseIN11GrammarRule6SymbolENS_9allocatorIS2_EEE8capacityEv
FN:417,_ZNSt3__113__vector_baseIN11GrammarRule6SymbolENS_9allocatorIS2_EEE17__destruct_at_endEPS2_
FN:447,_ZNSt3__113__vector_baseIN11GrammarRule6SymbolENS_9allocatorIS2_EEEC2EOS4_
FN:454,_ZNSt3__113__vector_baseIN11GrammarRule6SymbolENS_9allocatorIS2_EEED2Ev
FN:464,_ZNSt3__16vectorIN11GrammarRule6SymbolENS_9allocatorIS2_EEED2Ev
FN:464,_ZNSt3__16vectorIN11GrammarRule6SymbolENS_9allocatorIS2_EEED1Ev
FN:649,_ZNKSt3__16vectorIN11GrammarRule6SymbolENS_9allocatorIS2_EEE4sizeEv
FN:652,_ZNKSt3__16vectorIN11GrammarRule6SymbolENS_9allocatorIS2_EEE8capacityEv
FN:691,_ZNKSt3__16vectorIN11GrammarRule6SymbolENS_9allocatorIS2_EEE4dataEv
FN:855,_ZNKSt3__16vectorIN11GrammarRule6SymbolENS_9allocatorIS2_EEE31__annotate_contiguous_containerEPKvS7_S7_S7_
FN:859,_ZNKSt3__16vectorIN11GrammarRule6SymbolENS_9allocatorIS2_EEE14__annotate_newEm
FN:903,_ZNSt3__16vectorIN11GrammarRule6SymbolENS_9allocatorIS2_EEE24__RAII_IncreaseAnnotatorC1ERKS5_m
FN:903,_ZNSt3__16vectorIN11GrammarRule6SymbolENS_9allocatorIS2_EEE24__RAII_IncreaseAnnotatorC2ERKS5_m
FN:904,_ZNSt3__16vectorIN11GrammarRule6SymbolENS_9allocatorIS2_EEE24__RAII_IncreaseAnnotator6__doneEv
FN:966,_ZNSt3__16vectorIN11GrammarRule6SymbolENS_9allocatorIS2_EEE11__vallocateEm
FN:989,_ZNKSt3__16vectorIN11GrammarRule6SymbolENS_9allocatorIS2_EEE8max_sizeEv
FN:1059,_ZNSt3__16vectorIN11GrammarRule6SymbolENS_9allocatorIS2_EEE18__construct_at_endIPS2_EENS_9enable_ifIXsr21__is_forward_iteratorIT_EE5valueEvE4typeES9_S9_m
FN:1236,_ZNSt3__16vectorIN11GrammarRule6SymbolENS_9allocatorIS2_EEEC2ERKS5_
FN:1236,_ZNSt3__16vectorIN11GrammarRule6SymbolENS_9allocatorIS2_EEEC1ERKS5_
FN:1543,_ZNKSt3__16vectorIN11GrammarRule6SymbolENS_9allocatorIS2_EEEixEm
FNDA:0,_ZNSt3__120__vector_base_commonILb1EEC2Ev
FNDA:0,_ZNSt3__113__vector_baseIN11GrammarRule6SymbolENS_9allocatorIS2_EEE7__allocEv
FNDA:0,_ZNKSt3__113__vector_baseIN11GrammarRule6SymbolENS_9allocatorIS2_EEE7__allocEv
FNDA:0,_ZNSt3__113__vector_baseIN11GrammarRule6SymbolENS_9allocatorIS2_EEE9__end_capEv
FNDA:0,_ZNKSt3__113__vector_baseIN11GrammarRule6SymbolENS_9allocatorIS2_EEE9__end_capEv
FNDA:0,_ZNSt3__113__vector_baseIN11GrammarRule6SymbolENS_9allocatorIS2_EEE5clearEv
FNDA:0,_ZNKSt3__113__vector_baseIN11GrammarRule6SymbolENS_9allocatorIS2_EEE8capacityEv
FNDA:0,_ZNSt3__113__vector_baseIN11GrammarRule6SymbolENS_9allocatorIS2_EEE17__destruct_at_endEPS2_
FNDA:0,_ZNSt3__113__vector_baseIN11GrammarRule6SymbolENS_9allocatorIS2_EEEC2EOS4_
FNDA:0,_ZNSt3__113__vector_baseIN11GrammarRule6SymbolENS_9allocatorIS2_EEED2Ev
FNDA:0,_ZNSt3__16vectorIN11GrammarRule6SymbolENS_9allocatorIS2_EEED1Ev
FNDA:0,_ZNSt3__16vectorIN11GrammarRule6SymbolENS_9allocatorIS2_EEED2Ev
FNDA:24318,_ZNKSt3__16vectorIN11GrammarRule6SymbolENS_9allocatorIS2_EEE4sizeEv
FNDA:0,_ZNKSt3__16vectorIN11GrammarRule6SymbolENS_9allocatorIS2_EEE8capacityEv
FNDA:0,_ZNKSt3__16vectorIN11GrammarRule6SymbolENS_9allocatorIS2_EEE4dataEv
FNDA:0,_ZNKSt3__16vectorIN11GrammarRule6SymbolENS_9allocatorIS2_EEE31__annotate_contiguous_containerEPKvS7_S7_S7_
FNDA:0,_ZNKSt3__16vectorIN11GrammarRule6SymbolENS_9allocatorIS2_EEE14__annotate_newEm
FNDA:0,_ZNSt3__16vectorIN11GrammarRule6SymbolENS_9allocatorIS2_EEE24__RAII_IncreaseAnnotatorC1ERKS5_m
FNDA:0,_ZNSt3__16vectorIN11GrammarRule6SymbolENS_9allocatorIS2_EEE24__RAII_IncreaseAnnotatorC2ERKS5_m
FNDA:0,_ZNSt3__16vectorIN11GrammarRule6SymbolENS_9allocatorIS2_EEE24__RAII_IncreaseAnnotator6__doneEv
FNDA:0,_ZNSt3__16vectorIN11GrammarRule6SymbolENS_9allocatorIS2_EEE11__vallocateEm
FNDA:0,_ZNKSt3__16vectorIN11GrammarRule6SymbolENS_9allocatorIS2_EEE8max_sizeEv
FNDA:0,_ZNSt3__16vectorIN11GrammarRule6SymbolENS_9allocatorIS2_EEE18__construct_at_endIPS2_EENS_9enable_ifIXsr21__is_forward_iteratorIT_EE5valueEvE4typeES9_S9_m
FNDA:0,_ZNSt3__16vectorIN11GrammarRule6SymbolENS_9allocatorIS2_EEEC1ERKS5_
FNDA:0,_ZNSt3__16vectorIN11GrammarRule6SymbolENS_9allocatorIS2_EEEC2ERKS5_
FNDA:24699,_ZNKSt3__16vectorIN11GrammarRule6SymbolENS_9allocatorIS2_EEEixEm
FNF:26
FNH:2
DA:298,0
DA:343,0
DA:346,0
DA:349,0
DA:352,0
DA:359,0
DA:364,0
DA:367,0
DA:419,0
DA:420,0
DA:421,0
DA:422,0
DA:423,0
DA:448,0
DA:449,0
DA:450,0
DA:456,0
DA:458,0
DA:459,0
DA:460,0
DA:461,0
DA:464,0
DA:650,24318
DA:653,0
DA:692,0
DA:856,0
DA:860,0
DA:861,0
DA:862,0
DA:903,0
DA:904,0
DA:968,0
DA:969,0
DA:970,0
DA:971,0
DA:972,0
DA:973,0
DA:991,0
DA:992,0
DA:1061,0
DA:1062,0
DA:1063,0
DA:1064,0
DA:1065,0
DA:1237,0
DA:1238,0
DA:1242,0
DA:1243,0
DA:1245,0
DA:1246,0
DA:1247,0
DA:1248,0
DA:1546,24699
LF:53
LH:2
end_of_record
SF:/Users/evgenabramov/MIPT-Formal-Practice2/GrammarRule.h
FN:8,_ZN11GrammarRuleD2Ev
FN:8,_ZN11GrammarRuleD1Ev
FN:13,_ZN11GrammarRuleC1ERKS_
FN:13,_ZN11GrammarRuleC2ERKS_
FNDA:0,_ZN11GrammarRuleD1Ev
FNDA:0,_ZN11GrammarRuleD2Ev
FNDA:0,_ZN11GrammarRuleC1ERKS_
FNDA:0,_ZN11GrammarRuleC2ERKS_
FNF:4
FNH:0
DA:8,0
DA:13,0
LF:2
LH:0
end_of_record
SF:/Users/evgenabramov/MIPT-Formal-Practice2/Situation.cpp
FN:4,_ZNK9Situation25CheckNextSymbolIsTerminalEv
FN:11,_ZNK9Situation13GetNextSymbolEv
FN:15,_ZNK9Situation18CheckRuleCompletedEv
FN:19,_ZNK9Situation14MovePointRightEv
FN:23,_ZNK9SituationeqERKS_
FN:29,_ZNK9SituationltERKS_
FNDA:5441,_ZNK9Situation25CheckNextSymbolIsTerminalEv
FNDA:19605,_ZNK9Situation13GetNextSymbolEv
FNDA:24318,_ZNK9Situation18CheckRuleCompletedEv
FNDA:2071,_ZNK9Situation14MovePointRightEv
FNDA:98,_ZNK9SituationeqERKS_
FNDA:50945,_ZNK9SituationltERKS_
FNF:6
FNH:6
DA:5,5441
DA:6,347
DA:8,5094
DA:9,5441
DA:12,19605
DA:16,24318
DA:20,2071
DA:24,196
DA:25,35
DA:26,35
DA:30,101890
DA:31,101890
DA:32,0
LF:13
LH:12
end_of_record
SF:/Users/evgenabramov/MIPT-Formal-Practice2/Situation.h
FN:4,_ZN9SituationC1ERK11GrammarRulemm
FN:4,_ZN9SituationC2ERK11GrammarRulemm
FNDA:0,_ZN9SituationC1ERK11GrammarRulemm
FNDA:0,_ZN9SituationC2ERK11GrammarRulemm
FNF:2
FNH:0
DA:5,0
LF:1
LH:0
end_of_record
TN:
SF:/Library/Developer/CommandLineTools/usr/include/c++/v1/__split_buffer
FN:56,_ZNSt3__114__split_bufferI11GrammarRuleRNS_9allocatorIS1_EEE7__allocEv
FN:58,_ZNSt3__114__split_bufferI11GrammarRuleRNS_9allocatorIS1_EEE9__end_capEv
FN:59,_ZNKSt3__114__split_bufferI11GrammarRuleRNS_9allocatorIS1_EEE9__end_capEv
FN:87,_ZNSt3__114__split_bufferI11GrammarRuleRNS_9allocatorIS1_EEE5clearEv
FN:91,_ZNKSt3__114__split_bufferI11GrammarRuleRNS_9allocatorIS1_EEE8capacityEv
FN:140,_ZNSt3__114__split_bufferI11GrammarRuleRNS_9allocatorIS1_EEE17__destruct_at_endEPS1_
FN:293,_ZNSt3__114__split_bufferI11GrammarRuleRNS_9allocatorIS1_EEE17__destruct_at_endEPS1_NS_17integral_constantIbLb0EEE
FN:308,_ZNSt3__114__split_bufferI11GrammarRuleRNS_9allocatorIS1_EEEC1EmmS4_
FN:308,_ZNSt3__114__split_bufferI11GrammarRuleRNS_9allocatorIS1_EEEC2EmmS4_
FN:339,_ZNSt3__114__split_bufferI11GrammarRuleRNS_9allocatorIS1_EEED2Ev
FN:339,_ZNSt3__114__split_bufferI11GrammarRuleRNS_9allocatorIS1_EEED1Ev
FNDA:145,_ZNSt3__114__split_bufferI11GrammarRuleRNS_9allocatorIS1_EEE7__allocEv
FNDA:68,_ZNSt3__114__split_bufferI11GrammarRuleRNS_9allocatorIS1_EEE9__end_capEv
FNDA:26,_ZNKSt3__114__split_bufferI11GrammarRuleRNS_9allocatorIS1_EEE9__end_capEv
FNDA:34,_ZNSt3__114__split_bufferI11GrammarRuleRNS_9allocatorIS1_EEE5clearEv
FNDA:26,_ZNKSt3__114__split_bufferI11GrammarRuleRNS_9allocatorIS1_EEE8capacityEv
FNDA:34,_ZNSt3__114__split_bufferI11GrammarRuleRNS_9allocatorIS1_EEE17__destruct_at_endEPS1_
FNDA:34,_ZNSt3__114__split_bufferI11GrammarRuleRNS_9allocatorIS1_EEE17__destruct_at_endEPS1_NS_17integral_constantIbLb0EEE
FNDA:34,_ZNSt3__114__split_bufferI11GrammarRuleRNS_9allocatorIS1_EEEC1EmmS4_
FNDA:34,_ZNSt3__114__split_bufferI11GrammarRuleRNS_9allocatorIS1_EEEC2EmmS4_
FNDA:34,_ZNSt3__114__split_bufferI11GrammarRuleRNS_9allocatorIS1_EEED1Ev
FNDA:34,_ZNSt3__114__split_bufferI11GrammarRuleRNS_9allocatorIS1_EEED2Ev
FNF:11
FNH:11
DA:56,145
DA:58,68
DA:59,26
DA:88,34
DA:91,26
DA:141,34
DA:295,238
DA:296,85
DA:297,34
DA:309,34
DA:310,68
DA:311,102
DA:312,34
DA:313,34
DA:314,68
DA:340,34
DA:341,34
DA:342,34
DA:343,52
DA:344,68
LF:20
LH:20
end_of_record
SF:/Library/Developer/CommandLineTools/usr/include/c++/v1/algorithm
FN:721,_ZNKSt3__16__lessImmEclERKmS3_
FN:2560,_ZNSt3__1L3minImNS_6__lessImmEEEERKT_S5_S5_T0_
FN:2568,_ZNSt3__1L3minImEERKT_S3_S3_
FN:2625,_ZNSt3__1L3maxImNS_6__lessImmEEEERKT_S5_S5_T0_
FN:2633,_ZNSt3__1L3maxImEERKT_S3_S3_
FNDA:34,_ZNKSt3__16__lessImmEclERKmS3_
FNDA:0,_ZNSt3__1L3minImNS_6__lessImmEEEERKT_S5_S5_T0_
FNDA:0,_ZNSt3__1L3minImEERKT_S3_S3_
FNDA:34,_ZNSt3__1L3maxImNS_6__lessImmEEEERKT_S5_S5_T0_
FNDA:34,_ZNSt3__1L3maxImEERKT_S3_S3_
FNF:5
FNH:3
DA:721,34
DA:2562,0
DA:2570,0
DA:2627,102
DA:2635,34
LF:5
LH:3
end_of_record
SF:/Library/Developer/CommandLineTools/usr/include/c++/v1/limits
FN:213,_ZNSt3__123__libcpp_numeric_limitsIlLb1EE3maxEv
FN:450,_ZNSt3__114numeric_limitsIlE3maxEv
FNDA:0,_ZNSt3__123__libcpp_numeric_limitsIlLb1EE3maxEv
FNDA:0,_ZNSt3__114numeric_limitsIlE3maxEv
FNF:2
FNH:0
DA:213,0
DA:450,0
LF:2
LH:0
end_of_record
SF:/Library/Developer/CommandLineTools/usr/include/c++/v1/memory
FN:1105,_ZNSt3__1L16__to_raw_pointerI11GrammarRuleEEPT_S3_
FN:1105,_ZNSt3__1L16__to_raw_pointerIN11GrammarRule6SymbolEEEPT_S4_
FN:1545,_ZNSt3__116allocator_traitsINS_9allocatorIN11GrammarRule6SymbolEEEE8allocateERS4_m
FN:1545,_ZNSt3__116allocator_traitsINS_9allocatorI11GrammarRuleEEE8allocateERS3_m
FN:1553,_ZNSt3__116allocator_traitsINS_9allocatorIN11GrammarRule6SymbolEEEE10deallocateERS4_PS3_m
FN:1553,_ZNSt3__116allocator_traitsINS_9allocatorI11GrammarRuleEEE10deallocateERS3_PS2_m
FN:1559,_ZNSt3__116allocator_traitsINS_9allocatorI11GrammarRuleEEE9constructIS2_JRKNS_12basic_stringIcNS_11char_traitsIcEENS1_IcEEEEEEEvRS3_PT_DpOT0_
FN:1559,_ZNSt3__116allocator_traitsINS_9allocatorI11GrammarRuleEEE9constructIS2_JRKS2_EEEvRS3_PT_DpOT0_
FN:1594,_ZNSt3__116allocator_traitsINS_9allocatorIN11GrammarRule6SymbolEEEE7destroyIS3_EEvRS4_PT_
FN:1594,_ZNSt3__116allocator_traitsINS_9allocatorI11GrammarRuleEEE7destroyIS2_EEvRS3_PT_
FN:1598,_ZNSt3__116allocator_traitsINS_9allocatorI11GrammarRuleEEE8max_sizeERKS3_
FN:1598,_ZNSt3__116allocator_traitsINS_9allocatorIN11GrammarRule6SymbolEEEE8max_sizeERKS4_
FN:1603,_ZNSt3__116allocator_traitsINS_9allocatorIN11GrammarRule6SymbolEEEE37select_on_container_copy_constructionERKS4_
FN:1661,_ZNSt3__116allocator_traitsINS_9allocatorIN11GrammarRule6SymbolEEEE25__construct_range_forwardIS3_S3_S3_S3_EENS_9enable_ifIXaaaasr31is_trivially_move_constructibleIT0_EE5valuesr7is_sameIT1_T2_EE5valueooL_ZNS_17integral_constantIbLb1EE5valueEEntsr15__has_constructIS4_PS8_RT_EE5valueEvE4typeERS4_PSE_SJ_RSD_
FN:1675,_ZNSt3__116allocator_traitsINS_9allocatorI11GrammarRuleEEE20__construct_backwardIPS2_EEvRS3_T_S8_RS8_
FN:1716,_ZNSt3__116allocator_traitsINS_9allocatorI11GrammarRuleEEE11__constructIS2_JRKNS_12basic_stringIcNS_11char_traitsIcEENS1_IcEEEEEEEvNS_17integral_constantIbLb1EEERS3_PT_DpOT0_
FN:1716,_ZNSt3__116allocator_traitsINS_9allocatorI11GrammarRuleEEE11__constructIS2_JRKS2_EEEvNS_17integral_constantIbLb1EEERS3_PT_DpOT0_
FN:1741,_ZNSt3__116allocator_traitsINS_9allocatorI11GrammarRuleEEE9__destroyIS2_EEvNS_17integral_constantIbLb1EEERS3_PT_
FN:1741,_ZNSt3__116allocator_traitsINS_9allocatorIN11GrammarRule6SymbolEEEE9__destroyIS3_EEvNS_17integral_constantIbLb1EEERS4_PT_
FN:1751,_ZNSt3__116allocator_traitsINS_9allocatorI11GrammarRuleEEE10__max_sizeENS_17integral_constantIbLb1EEERKS3_
FN:1751,_ZNSt3__116allocator_traitsINS_9allocatorIN11GrammarRule6SymbolEEEE10__max_sizeENS_17integral_constantIbLb1EEERKS4_
FN:1763,_ZNSt3__116allocator_traitsINS_9allocatorIN11GrammarRule6SymbolEEEE39__select_on_container_copy_constructionENS_17integral_constantIbLb0EEERKS4_
FN:1808,_ZNSt3__19allocatorI11GrammarRuleE8allocateEmPKv
FN:1808,_ZNSt3__19allocatorIN11GrammarRule6SymbolEE8allocateEmPKv
FN:1815,_ZNSt3__19allocatorIN11GrammarRule6SymbolEE10deallocateEPS2_m
FN:1815,_ZNSt3__19allocatorI11GrammarRuleE10deallocateEPS1_m
FN:1817,_ZNKSt3__19allocatorI11GrammarRuleE8max_sizeEv
FN:1817,_ZNKSt3__19allocatorIN11GrammarRule6SymbolEE8max_sizeEv
FN:1823,_ZNSt3__19allocatorI11GrammarRuleE9constructIS1_JRKNS_12basic_stringIcNS_11char_traitsIcEENS0_IcEEEEEEEvPT_DpOT0_
FN:1823,_ZNSt3__19allocatorI11GrammarRuleE9constructIS1_JRKS1_EEEvPT_DpOT0_
FN:1880,_ZNSt3__19allocatorI11GrammarRuleE7destroyEPS1_
FN:1880,_ZNSt3__19allocatorIN11GrammarRule6SymbolEE7destroyEPS2_
FN:2146,_ZNSt3__122__compressed_pair_elemIPN11GrammarRule6SymbolELi0ELb0EEC2IDnvEEOT_
FN:2146,_ZNSt3__122__compressed_pair_elemIRNS_9allocatorI11GrammarRuleEELi1ELb0EEC2IS4_vEEOT_
FN:2146,_ZNSt3__122__compressed_pair_elemIP11GrammarRuleLi0ELb0EEC2IDnvEEOT_
FN:2160,_ZNSt3__122__compressed_pair_elemIRNS_9allocatorI11GrammarRuleEELi1ELb0EE5__getEv
FN:2160,_ZNSt3__122__compressed_pair_elemIP11GrammarRuleLi0ELb0EE5__getEv
FN:2160,_ZNSt3__122__compressed_pair_elemIPN11GrammarRule6SymbolELi0ELb0EE5__getEv
FN:2162,_ZNKSt3__122__compressed_pair_elemIPN11GrammarRule6SymbolELi0ELb0EE5__getEv
FN:2162,_ZNKSt3__122__compressed_pair_elemIP11GrammarRuleLi0ELb0EE5__getEv
FN:2183,_ZNSt3__122__compressed_pair_elemINS_9allocatorIN11GrammarRule6SymbolEEELi1ELb1EEC2IS4_vEEOT_
FN:2198,_ZNSt3__122__compressed_pair_elemINS_9allocatorIN11GrammarRule6SymbolEEELi1ELb1EE5__getEv
FN:2198,_ZNSt3__122__compressed_pair_elemINS_9allocatorI11GrammarRuleEELi1ELb1EE5__getEv
FN:2200,_ZNKSt3__122__compressed_pair_elemINS_9allocatorI11GrammarRuleEELi1ELb1EE5__getEv
FN:2200,_ZNKSt3__122__compressed_pair_elemINS_9allocatorIN11GrammarRule6SymbolEEELi1ELb1EE5__getEv
FN:2246,_ZNSt3__117__compressed_pairIP11GrammarRuleRNS_9allocatorIS1_EEEC2IDnS5_EEOT_OT0_
FN:2246,_ZNSt3__117__compressed_pairIP11GrammarRuleRNS_9allocatorIS1_EEEC1IDnS5_EEOT_OT0_
FN:2246,_ZNSt3__117__compressed_pairIPN11GrammarRule6SymbolENS_9allocatorIS2_EEEC2IDnS5_EEOT_OT0_
FN:2246,_ZNSt3__117__compressed_pairIPN11GrammarRule6SymbolENS_9allocatorIS2_EEEC1IDnS5_EEOT_OT0_
FN:2275,_ZNSt3__117__compressed_pairIPN11GrammarRule6SymbolENS_9allocatorIS2_EEE5firstEv
FN:2275,_ZNSt3__117__compressed_pairIP11GrammarRuleNS_9allocatorIS1_EEE5firstEv
FN:2275,_ZNSt3__117__compressed_pairIP11GrammarRuleRNS_9allocatorIS1_EEE5firstEv
FN:2280,_ZNKSt3__117__compressed_pairIP11GrammarRuleNS_9allocatorIS1_EEE5firstEv
FN:2280,_ZNKSt3__117__compressed_pairIPN11GrammarRule6SymbolENS_9allocatorIS2_EEE5firstEv
FN:2280,_ZNKSt3__117__compressed_pairIP11GrammarRuleRNS_9allocatorIS1_EEE5firstEv
FN:2285,_ZNSt3__117__compressed_pairIPN11GrammarRule6SymbolENS_9allocatorIS2_EEE6secondEv
FN:2285,_ZNSt3__117__compressed_pairIP11GrammarRuleRNS_9allocatorIS1_EEE6secondEv
FN:2285,_ZNSt3__117__compressed_pairIP11GrammarRuleNS_9allocatorIS1_EEE6secondEv
FN:2290,_ZNKSt3__117__compressed_pairIP11GrammarRuleNS_9allocatorIS1_EEE6secondEv
FN:2290,_ZNKSt3__117__compressed_pairIPN11GrammarRule6SymbolENS_9allocatorIS2_EEE6secondEv
FNDA:528,_ZNSt3__1L16__to_raw_pointerI11GrammarRuleEEPT_S3_
FNDA:0,_ZNSt3__1L16__to_raw_pointerIN11GrammarRule6SymbolEEEPT_S4_
FNDA:34,_ZNSt3__116allocator_traitsINS_9allocatorI11GrammarRuleEEE8allocateERS3_m
FNDA:0,_ZNSt3__116allocator_traitsINS_9allocatorIN11GrammarRule6SymbolEEEE8allocateERS4_m
FNDA:0,_ZNSt3__116allocator_traitsINS_9allocatorIN11GrammarRule6SymbolEEEE10deallocateERS4_PS3_m
FNDA:26,_ZNSt3__116allocator_traitsINS_9allocatorI11GrammarRuleEEE10deallocateERS3_PS2_m
FNDA:39,_ZNSt3__116allocator_traitsINS_9allocatorI11GrammarRuleEEE9constructIS2_JRKNS_12basic_stringIcNS_11char_traitsIcEENS1_IcEEEEEEEvRS3_PT_DpOT0_
FNDA:132,_ZNSt3__116allocator_traitsINS_9allocatorI11GrammarRuleEEE9constructIS2_JRKS2_EEEvRS3_PT_DpOT0_
FNDA:0,_ZNSt3__116allocator_traitsINS_9allocatorIN11GrammarRule6SymbolEEEE7destroyIS3_EEvRS4_PT_
FNDA:85,_ZNSt3__116allocator_traitsINS_9allocatorI11GrammarRuleEEE7destroyIS2_EEvRS3_PT_
FNDA:0,_ZNSt3__116allocator_traitsINS_9allocatorI11GrammarRuleEEE8max_sizeERKS3_
FNDA:0,_ZNSt3__116allocator_traitsINS_9allocatorIN11GrammarRule6SymbolEEEE8max_sizeERKS4_
FNDA:0,_ZNSt3__116allocator_traitsINS_9allocatorIN11GrammarRule6SymbolEEEE37select_on_container_copy_constructionERKS4_
FNDA:0,_ZNSt3__116allocator_traitsINS_9allocatorIN11GrammarRule6SymbolEEEE25__construct_range_forwardIS3_S3_S3_S3_EENS_9enable_ifIXaaaasr31is_trivially_move_constructibleIT0_EE5valuesr7is_sameIT1_T2_EE5valueooL_ZNS_17integral_constantIbLb1EE5valueEEntsr15__has_constructIS4_PS8_RT_EE5valueEvE4typeERS4_PSE_SJ_RSD_
FNDA:34,_ZNSt3__116allocator_traitsINS_9allocatorI11GrammarRuleEEE20__construct_backwardIPS2_EEvRS3_T_S8_RS8_
FNDA:39,_ZNSt3__116allocator_traitsINS_9allocatorI11GrammarRuleEEE11__constructIS2_JRKNS_12basic_stringIcNS_11char_traitsIcEENS1_IcEEEEEEEvNS_17integral_constantIbLb1EEERS3_PT_DpOT0_
FNDA:132,_ZNSt3__116allocator_traitsINS_9allocatorI11GrammarRuleEEE11__constructIS2_JRKS2_EEEvNS_17integral_constantIbLb1EEERS3_PT_DpOT0_
FNDA:0,_ZNSt3__116allocator_traitsINS_9allocatorIN11GrammarRule6SymbolEEEE9__destroyIS3_EEvNS_17integral_constantIbLb1EEERS4_PT_
FNDA:85,_ZNSt3__116allocator_traitsINS_9allocatorI11GrammarRuleEEE9__destroyIS2_EEvNS_17integral_constantIbLb1EEERS3_PT_
FNDA:0,_ZNSt3__116allocator_traitsINS_9allocatorI11GrammarRuleEEE10__max_sizeENS_17integral_constantIbLb1EEERKS3_
FNDA:0,_ZNSt3__116allocator_traitsINS_9allocatorIN11GrammarRule6SymbolEEEE10__max_sizeENS_17integral_constantIbLb1EEERKS4_
FNDA:0,_ZNSt3__116allocator_traitsINS_9allocatorIN11GrammarRule6SymbolEEEE39__select_on_container_copy_constructionENS_17integral_constantIbLb0EEERKS4_
FNDA:34,_ZNSt3__19allocatorI11GrammarRuleE8allocateEmPKv
FNDA:0,_ZNSt3__19allocatorIN11GrammarRule6SymbolEE8allocateEmPKv
FNDA:0,_ZNSt3__19allocatorIN11GrammarRule6SymbolEE10deallocateEPS2_m
FNDA:26,_ZNSt3__19allocatorI11GrammarRuleE10deallocateEPS1_m
FNDA:34,_ZNKSt3__19allocatorI11GrammarRuleE8max_sizeEv
FNDA:0,_ZNKSt3__19allocatorIN11GrammarRule6SymbolEE8max_sizeEv
FNDA:39,_ZNSt3__19allocatorI11GrammarRuleE9constructIS1_JRKNS_12basic_stringIcNS_11char_traitsIcEENS0_IcEEEEEEEvPT_DpOT0_
FNDA:132,_ZNSt3__19allocatorI11GrammarRuleE9constructIS1_JRKS1_EEEvPT_DpOT0_
FNDA:0,_ZNSt3__19allocatorIN11GrammarRule6SymbolEE7destroyEPS2_
FNDA:85,_ZNSt3__19allocatorI11GrammarRuleE7destroyEPS1_
FNDA:34,_ZNSt3__122__compressed_pair_elemIP11GrammarRuleLi0ELb0EEC2IDnvEEOT_
FNDA:34,_ZNSt3__122__compressed_pair_elemIRNS_9allocatorI11GrammarRuleEELi1ELb0EEC2IS4_vEEOT_
FNDA:0,_ZNSt3__122__compressed_pair_elemIPN11GrammarRule6SymbolELi0ELb0EEC2IDnvEEOT_
FNDA:188,_ZNSt3__122__compressed_pair_elemIP11GrammarRuleLi0ELb0EE5__getEv
FNDA:145,_ZNSt3__122__compressed_pair_elemIRNS_9allocatorI11GrammarRuleEELi1ELb0EE5__getEv
FNDA:0,_ZNSt3__122__compressed_pair_elemIPN11GrammarRule6SymbolELi0ELb0EE5__getEv
FNDA:196,_ZNKSt3__122__compressed_pair_elemIP11GrammarRuleLi0ELb0EE5__getEv
FNDA:0,_ZNKSt3__122__compressed_pair_elemIPN11GrammarRule6SymbolELi0ELb0EE5__getEv
FNDA:0,_ZNSt3__122__compressed_pair_elemINS_9allocatorIN11GrammarRule6SymbolEEELi1ELb1EEC2IS4_vEEOT_
FNDA:120,_ZNSt3__122__compressed_pair_elemINS_9allocatorI11GrammarRuleEELi1ELb1EE5__getEv
FNDA:0,_ZNSt3__122__compressed_pair_elemINS_9allocatorIN11GrammarRule6SymbolEEELi1ELb1EE5__getEv
FNDA:0,_ZNKSt3__122__compressed_pair_elemINS_9allocatorI11GrammarRuleEELi1ELb1EE5__getEv
FNDA:0,_ZNKSt3__122__compressed_pair_elemINS_9allocatorIN11GrammarRule6SymbolEEELi1ELb1EE5__getEv
FNDA:34,_ZNSt3__117__compressed_pairIP11GrammarRuleRNS_9allocatorIS1_EEEC1IDnS5_EEOT_OT0_
FNDA:34,_ZNSt3__117__compressed_pairIP11GrammarRuleRNS_9allocatorIS1_EEEC2IDnS5_EEOT_OT0_
FNDA:0,_ZNSt3__117__compressed_pairIPN11GrammarRule6SymbolENS_9allocatorIS2_EEEC1IDnS5_EEOT_OT0_
FNDA:0,_ZNSt3__117__compressed_pairIPN11GrammarRule6SymbolENS_9allocatorIS2_EEEC2IDnS5_EEOT_OT0_
FNDA:120,_ZNSt3__117__compressed_pairIP11GrammarRuleNS_9allocatorIS1_EEE5firstEv
FNDA:68,_ZNSt3__117__compressed_pairIP11GrammarRuleRNS_9allocatorIS1_EEE5firstEv
FNDA:0,_ZNSt3__117__compressed_pairIPN11GrammarRule6SymbolENS_9allocatorIS2_EEE5firstEv
FNDA:170,_ZNKSt3__117__compressed_pairIP11GrammarRuleNS_9allocatorIS1_EEE5firstEv
FNDA:0,_ZNKSt3__117__compressed_pairIPN11GrammarRule6SymbolENS_9allocatorIS2_EEE5firstEv
FNDA:26,_ZNKSt3__117__compressed_pairIP11GrammarRuleRNS_9allocatorIS1_EEE5firstEv
FNDA:120,_ZNSt3__117__compressed_pairIP11GrammarRuleNS_9allocatorIS1_EEE6secondEv
FNDA:145,_ZNSt3__117__compressed_pairIP11GrammarRuleRNS_9allocatorIS1_EEE6secondEv
FNDA:0,_ZNSt3__117__compressed_pairIPN11GrammarRule6SymbolENS_9allocatorIS2_EEE6secondEv
FNDA:0,_ZNKSt3__117__compressed_pairIP11GrammarRuleNS_9allocatorIS1_EEE6secondEv
FNDA:0,_ZNKSt3__117__compressed_pairIPN11GrammarRule6SymbolENS_9allocatorIS2_EEE6secondEv
FNF:60
FNH:30
DA:1107,528
DA:1546,34
DA:1554,26
DA:1560,342
DA:1561,342
DA:1595,85
DA:1599,0
DA:1604,0
DA:1605,0
DA:1606,0
DA:1663,0
DA:1664,0
DA:1666,0
DA:1667,0
DA:1668,0
DA:1669,0
DA:1677,238
DA:1679,85
DA:1680,85
DA:1682,34
DA:1717,171
DA:1742,85
DA:1752,0
DA:1764,0
DA:1810,34
DA:1811,0
DA:1813,34
DA:1816,52
DA:1818,34
DA:1825,171
DA:1826,171
DA:1880,85
DA:2147,68
DA:2160,333
DA:2162,196
DA:2184,0
DA:2198,120
DA:2200,0
DA:2247,68
DA:2276,188
DA:2281,196
DA:2286,265
DA:2291,0
LF:43
LH:27
end_of_record
SF:/Library/Developer/CommandLineTools/usr/include/c++/v1/new
FN:228,_ZNSt3__1L24__is_overaligned_for_newEm
FN:236,_ZNSt3__1L17__libcpp_allocateEmm
FN:256,_ZNSt3__1L19__libcpp_deallocateEPvm
FNDA:60,_ZNSt3__1L24__is_overaligned_for_newEm
FNDA:34,_ZNSt3__1L17__libcpp_allocateEmm
FNDA:26,_ZNSt3__1L19__libcpp_deallocateEPvm
FNF:3
FNH:3
DA:230,60
DA:238,34
DA:239,0
DA:243,0
DA:252,34
DA:254,34
DA:258,26
DA:259,0
DA:263,0
DA:272,26
DA:274,26
LF:11
LH:7
end_of_record
SF:/Library/Developer/CommandLineTools/usr/include/c++/v1/stdexcept
FN:136,_ZNSt12length_errorC1EPKc
FN:136,_ZNSt12length_errorC2EPKc
FN:222,_ZNSt3__1L20__throw_length_errorEPKc
FNDA:0,_ZNSt12length_errorC1EPKc
FNDA:0,_ZNSt12length_errorC2EPKc
FNDA:0,_ZNSt3__1L20__throw_length_errorEPKc
FNF:3
FNH:0
DA:136,0
DA:225,0
DA:230,0
LF:3
LH:0
end_of_record
SF:/Library/Developer/CommandLineTools/usr/include/c++/v1/type_traits
FN:2288,_ZNSt3__1L4moveIR11GrammarRuleEEONS_16remove_referenceIT_E4typeEOS4_
FN:2288,_ZNSt3__1L4moveIRP11GrammarRuleEEONS_16remove_referenceIT_E4typeEOS5_
FN:2288,_ZNSt3__1L4moveIRNS_9allocatorIN11GrammarRule6SymbolEEEEEONS_16remove_referenceIT_E4typeEOS7_
FN:2297,_ZNSt3__1L7forwardINS_9allocatorIN11GrammarRule6SymbolEEEEEOT_RNS_16remove_referenceIS5_E4typeE
FN:2297,_ZNSt3__1L7forwardIRK11GrammarRuleEEOT_RNS_16remove_referenceIS4_E4typeE
FN:2297,_ZNSt3__1L7forwardIRKNS_12basic_stringIcNS_11char_traitsIcEENS_9allocatorIcEEEEEEOT_RNS_16remove_referenceIS9_E4typeE
FN:2297,_ZNSt3__1L7forwardIDnEEOT_RNS_16remove_referenceIS1_E4typeE
FN:2297,_ZNSt3__1L7forwardIRNS_9allocatorI11GrammarRuleEEEEOT_RNS_16remove_referenceIS5_E4typeE
FN:4501,_ZNSt3__1L4swapIP11GrammarRuleEENS_9enable_ifIXaasr21is_move_constructibleIT_EE5valuesr18is_move_assignableIS4_EE5valueEvE4typeERS4_S7_
FNDA:0,_ZNSt3__1L4moveIRNS_9allocatorIN11GrammarRule6SymbolEEEEEONS_16remove_referenceIT_E4typeEOS7_
FNDA:85,_ZNSt3__1L4moveIR11GrammarRuleEEONS_16remove_referenceIT_E4typeEOS4_
FNDA:306,_ZNSt3__1L4moveIRP11GrammarRuleEEONS_16remove_referenceIT_E4typeEOS5_
FNDA:182,_ZNSt3__1L7forwardIRKNS_12basic_stringIcNS_11char_traitsIcEENS_9allocatorIcEEEEEEOT_RNS_16remove_referenceIS9_E4typeE
FNDA:68,_ZNSt3__1L7forwardIDnEEOT_RNS_16remove_referenceIS1_E4typeE
FNDA:68,_ZNSt3__1L7forwardIRNS_9allocatorI11GrammarRuleEEEEOT_RNS_16remove_referenceIS5_E4typeE
FNDA:404,_ZNSt3__1L7forwardIRK11GrammarRuleEEOT_RNS_16remove_referenceIS4_E4typeE
FNDA:0,_ZNSt3__1L7forwardINS_9allocatorIN11GrammarRule6SymbolEEEEEOT_RNS_16remove_referenceIS5_E4typeE
FNDA:102,_ZNSt3__1L4swapIP11GrammarRuleEENS_9enable_ifIXaasr21is_move_constructibleIT_EE5valuesr18is_move_assignableIS4_EE5valueEvE4typeERS4_S7_
FNF:9
FNH:7
DA:2291,391
DA:2299,722
DA:4504,102
DA:4505,102
DA:4506,102
DA:4507,102
LF:6
LH:6
end_of_record
SF:/Library/Developer/CommandLineTools/usr/include/c++/v1/utility
FN:287,_ZNSt3__1L16move_if_noexceptI11GrammarRuleEENS_11conditionalIXaantsr29is_nothrow_move_constructibleIT_EE5valuesr21is_copy_constructibleIS3_EE5valueERKS3_OS3_E4typeERS3_
FNDA:85,_ZNSt3__1L16move_if_noexceptI11GrammarRuleEENS_11conditionalIXaantsr29is_nothrow_move_constructibleIT_EE5valuesr21is_copy_constructibleIS3_EE5valueERKS3_OS3_E4typeERS3_
FNF:1
FNH:1
DA:289,85
LF:1
LH:1
end_of_record
SF:/Library/Developer/CommandLineTools/usr/include/c++/v1/vector
FN:298,_ZNSt3__120__vector_base_commonILb1EEC2Ev
FN:342,_ZNSt3__113__vector_baseIN11GrammarRule6SymbolENS_9allocatorIS2_EEE7__allocEv
FN:342,_ZNSt3__113__vector_baseI11GrammarRuleNS_9allocatorIS1_EEE7__allocEv
FN:345,_ZNKSt3__113__vector_baseIN11GrammarRule6SymbolENS_9allocatorIS2_EEE7__allocEv
FN:345,_ZNKSt3__113__vector_baseI11GrammarRuleNS_9allocatorIS1_EEE7__allocEv
FN:348,_ZNSt3__113__vector_baseIN11GrammarRule6SymbolENS_9allocatorIS2_EEE9__end_capEv
FN:348,_ZNSt3__113__vector_baseI11GrammarRuleNS_9allocatorIS1_EEE9__end_capEv
FN:351,_ZNKSt3__113__vector_baseI11GrammarRuleNS_9allocatorIS1_EEE9__end_capEv
FN:351,_ZNKSt3__113__vector_baseIN11GrammarRule6SymbolENS_9allocatorIS2_EEE9__end_capEv
FN:364,_ZNSt3__113__vector_baseIN11GrammarRule6SymbolENS_9allocatorIS2_EEE5clearEv
FN:366,_ZNKSt3__113__vector_baseIN11GrammarRule6SymbolENS_9allocatorIS2_EEE8capacityEv
FN:366,_ZNKSt3__113__vector_baseI11GrammarRuleNS_9allocatorIS1_EEE8capacityEv
FN:417,_ZNSt3__113__vector_baseIN11GrammarRule6SymbolENS_9allocatorIS2_EEE17__destruct_at_endEPS2_
FN:447,_ZNSt3__113__vector_baseIN11GrammarRule6SymbolENS_9allocatorIS2_EEEC2EOS4_
FN:454,_ZNSt3__113__vector_baseIN11GrammarRule6SymbolENS_9allocatorIS2_EEED2Ev
FN:464,_ZNSt3__16vectorIN11GrammarRule6SymbolENS_9allocatorIS2_EEED2Ev
FN:464,_ZNSt3__16vectorIN11GrammarRule6SymbolENS_9allocatorIS2_EEED1Ev
FN:649,_ZNKSt3__16vectorI11GrammarRuleNS_9allocatorIS1_EEE4sizeEv
FN:649,_ZNKSt3__16vectorIN11GrammarRule6SymbolENS_9allocatorIS2_EEE4sizeEv
FN:652,_ZNKSt3__16vectorIN11GrammarRule6SymbolENS_9allocatorIS2_EEE8capacityEv
FN:652,_ZNKSt3__16vectorI11GrammarRuleNS_9allocatorIS1_EEE8capacityEv
FN:676,_ZNSt3__16vectorI11GrammarRuleNS_9allocatorIS1_EEE4backEv
FN:691,_ZNKSt3__16vectorIN11GrammarRule6SymbolENS_9allocatorIS2_EEE4dataEv
FN:691,_ZNKSt3__16vectorI11GrammarRuleNS_9allocatorIS1_EEE4dataEv
FN:855,_ZNKSt3__16vectorI11GrammarRuleNS_9allocatorIS1_EEE31__annotate_contiguous_containerEPKvS6_S6_S6_
FN:855,_ZNKSt3__16vectorIN11GrammarRule6SymbolENS_9allocatorIS2_EEE31__annotate_contiguous_containerEPKvS7_S7_S7_
FN:859,_ZNKSt3__16vectorI11GrammarRuleNS_9allocatorIS1_EEE14__annotate_newEm
FN:859,_ZNKSt3__16vectorIN11GrammarRule6SymbolENS_9allocatorIS2_EEE14__annotate_newEm
FN:865,_ZNKSt3__16vectorI11GrammarRuleNS_9allocatorIS1_EEE17__annotate_deleteEv
FN:903,_ZNSt3__16vectorI11GrammarRuleNS_9allocatorIS1_EEE24__RAII_IncreaseAnnotatorC2ERKS4_m
FN:903,_ZNSt3__16vectorI11GrammarRuleNS_9allocatorIS1_EEE24__RAII_IncreaseAnnotatorC1ERKS4_m
FN:903,_ZNSt3__16vectorIN11GrammarRule6SymbolENS_9allocatorIS2_EEE24__RAII_IncreaseAnnotatorC2ERKS5_m
FN:903,_ZNSt3__16vectorIN11GrammarRule6SymbolENS_9allocatorIS2_EEE24__RAII_IncreaseAnnotatorC1ERKS5_m
FN:904,_ZNSt3__16vectorI11GrammarRuleNS_9allocatorIS1_EEE24__RAII_IncreaseAnnotator6__doneEv
FN:904,_ZNSt3__16vectorIN11GrammarRule6SymbolENS_9allocatorIS2_EEE24__RAII_IncreaseAnnotator6__doneEv
FN:928,_ZNSt3__16vectorI11GrammarRuleNS_9allocatorIS1_EEE26__swap_out_circular_bufferERNS_14__split_bufferIS1_RS3_EE
FN:966,_ZNSt3__16vectorIN11GrammarRule6SymbolENS_9allocatorIS2_EEE11__vallocateEm
FN:989,_ZNKSt3__16vectorIN11GrammarRule6SymbolENS_9allocatorIS2_EEE8max_sizeEv
FN:989,_ZNKSt3__16vectorI11GrammarRuleNS_9allocatorIS1_EEE8max_sizeEv
FN:999,_ZNKSt3__16vectorI11GrammarRuleNS_9allocatorIS1_EEE11__recommendEm
FN:1059,_ZNSt3__16vectorIN11GrammarRule6SymbolENS_9allocatorIS2_EEE18__construct_at_endIPS2_EENS_9enable_ifIXsr21__is_forward_iteratorIT_EE5valueEvE4typeES9_S9_m
FN:1236,_ZNSt3__16vectorIN11GrammarRule6SymbolENS_9allocatorIS2_EEEC1ERKS5_
FN:1236,_ZNSt3__16vectorIN11GrammarRule6SymbolENS_9allocatorIS2_EEEC2ERKS5_
FN:1605,_ZNSt3__16vectorI11GrammarRuleNS_9allocatorIS1_EEE21__push_back_slow_pathIRKS1_EEvOT_
FN:1621,_ZNSt3__16vectorI11GrammarRuleNS_9allocatorIS1_EEE9push_backERKS1_
FN:1658,_ZNSt3__16vectorI11GrammarRuleNS_9allocatorIS1_EEE24__emplace_back_slow_pathIJRKNS_12basic_stringIcNS_11char_traitsIcEENS2_IcEEEEEEEvDpOT_
FN:1676,_ZNSt3__16vectorI11GrammarRuleNS_9allocatorIS1_EEE12emplace_backIJRKNS_12basic_stringIcNS_11char_traitsIcEENS2_IcEEEEEEERS1_DpOT_
FN:2139,_ZNSt3__16vectorI11GrammarRuleNS_9allocatorIS1_EEE26__invalidate_all_iteratorsEv
FNDA:0,_ZNSt3__120__vector_base_commonILb1EEC2Ev
FNDA:120,_ZNSt3__113__vector_baseI11GrammarRuleNS_9allocatorIS1_EEE7__allocEv
FNDA:0,_ZNSt3__113__vector_baseIN11GrammarRule6SymbolENS_9allocatorIS2_EEE7__allocEv
FNDA:0,_ZNKSt3__113__vector_baseI11GrammarRuleNS_9allocatorIS1_EEE7__allocEv
FNDA:0,_ZNKSt3__113__vector_baseIN11GrammarRule6SymbolENS_9allocatorIS2_EEE7__allocEv
FNDA:120,_ZNSt3__113__vector_baseI11GrammarRuleNS_9allocatorIS1_EEE9__end_capEv
FNDA:0,_ZNSt3__113__vector_baseIN11GrammarRule6SymbolENS_9allocatorIS2_EEE9__end_capEv
FNDA:170,_ZNKSt3__113__vector_baseI11GrammarRuleNS_9allocatorIS1_EEE9__end_capEv
FNDA:0,_ZNKSt3__113__vector_baseIN11GrammarRule6SymbolENS_9allocatorIS2_EEE9__end_capEv
FNDA:0,_ZNSt3__113__vector_baseIN11GrammarRule6SymbolENS_9allocatorIS2_EEE5clearEv
FNDA:170,_ZNKSt3__113__vector_baseI11GrammarRuleNS_9allocatorIS1_EEE8capacityEv
FNDA:0,_ZNKSt3__113__vector_baseIN11GrammarRule6SymbolENS_9allocatorIS2_EEE8capacityEv
FNDA:0,_ZNSt3__113__vector_baseIN11GrammarRule6SymbolENS_9allocatorIS2_EEE17__destruct_at_endEPS2_
FNDA:0,_ZNSt3__113__vector_baseIN11GrammarRule6SymbolENS_9allocatorIS2_EEEC2EOS4_
FNDA:0,_ZNSt3__113__vector_baseIN11GrammarRule6SymbolENS_9allocatorIS2_EEED2Ev
FNDA:0,_ZNSt3__16vectorIN11GrammarRule6SymbolENS_9allocatorIS2_EEED1Ev
FNDA:0,_ZNSt3__16vectorIN11GrammarRule6SymbolENS_9allocatorIS2_EEED2Ev
FNDA:136,_ZNKSt3__16vectorI11GrammarRuleNS_9allocatorIS1_EEE4sizeEv
FNDA:0,_ZNKSt3__16vectorIN11GrammarRule6SymbolENS_9allocatorIS2_EEE4sizeEv
FNDA:170,_ZNKSt3__16vectorI11GrammarRuleNS_9allocatorIS1_EEE8capacityEv
FNDA:0,_ZNKSt3__16vectorIN11GrammarRule6SymbolENS_9allocatorIS2_EEE8capacityEv
FNDA:39,_ZNSt3__16vectorI11GrammarRuleNS_9allocatorIS1_EEE4backEv
FNDA:272,_ZNKSt3__16vectorI11GrammarRuleNS_9allocatorIS1_EEE4dataEv
FNDA:0,_ZNKSt3__16vectorIN11GrammarRule6SymbolENS_9allocatorIS2_EEE4dataEv
FNDA:68,_ZNKSt3__16vectorI11GrammarRuleNS_9allocatorIS1_EEE31__annotate_contiguous_containerEPKvS6_S6_S6_
FNDA:0,_ZNKSt3__16vectorIN11GrammarRule6SymbolENS_9allocatorIS2_EEE31__annotate_contiguous_containerEPKvS7_S7_S7_
FNDA:34,_ZNKSt3__16vectorI11GrammarRuleNS_9allocatorIS1_EEE14__annotate_newEm
FNDA:0,_ZNKSt3__16vectorIN11GrammarRule6SymbolENS_9allocatorIS2_EEE14__annotate_newEm
FNDA:34,_ZNKSt3__16vectorI11GrammarRuleNS_9allocatorIS1_EEE17__annotate_deleteEv
FNDA:52,_ZNSt3__16vectorI11GrammarRuleNS_9allocatorIS1_EEE24__RAII_IncreaseAnnotatorC1ERKS4_m
FNDA:52,_ZNSt3__16vectorI11GrammarRuleNS_9allocatorIS1_EEE24__RAII_IncreaseAnnotatorC2ERKS4_m
FNDA:0,_ZNSt3__16vectorIN11GrammarRule6SymbolENS_9allocatorIS2_EEE24__RAII_IncreaseAnnotatorC1ERKS5_m
FNDA:0,_ZNSt3__16vectorIN11GrammarRule6SymbolENS_9allocatorIS2_EEE24__RAII_IncreaseAnnotatorC2ERKS5_m
FNDA:52,_ZNSt3__16vectorI11GrammarRuleNS_9allocatorIS1_EEE24__RAII_IncreaseAnnotator6__doneEv
FNDA:0,_ZNSt3__16vectorIN11GrammarRule6SymbolENS_9allocatorIS2_EEE24__RAII_IncreaseAnnotator6__doneEv
FNDA:34,_ZNSt3__16vectorI11GrammarRuleNS_9allocatorIS1_EEE26__swap_out_circular_bufferERNS_14__split_bufferIS1_RS3_EE
FNDA:0,_ZNSt3__16vectorIN11GrammarRule6SymbolENS_9allocatorIS2_EEE11__vallocateEm
FNDA:0,_ZNKSt3__16vectorI11GrammarRuleNS_9allocatorIS1_EEE8max_sizeEv
FNDA:0,_ZNKSt3__16vectorIN11GrammarRule6SymbolENS_9allocatorIS2_EEE8max_sizeEv
FNDA:34,_ZNKSt3__16vectorI11GrammarRuleNS_9allocatorIS1_EEE11__recommendEm
FNDA:0,_ZNSt3__16vectorIN11GrammarRule6SymbolENS_9allocatorIS2_EEE18__construct_at_endIPS2_EENS_9enable_ifIXsr21__is_forward_iteratorIT_EE5valueEvE4typeES9_S9_m
FNDA:0,_ZNSt3__16vectorIN11GrammarRule6SymbolENS_9allocatorIS2_EEEC1ERKS5_
FNDA:0,_ZNSt3__16vectorIN11GrammarRule6SymbolENS_9allocatorIS2_EEEC2ERKS5_
FNDA:8,_ZNSt3__16vectorI11GrammarRuleNS_9allocatorIS1_EEE21__push_back_slow_pathIRKS1_EEvOT_
FNDA:47,_ZNSt3__16vectorI11GrammarRuleNS_9allocatorIS1_EEE9push_backERKS1_
FNDA:26,_ZNSt3__16vectorI11GrammarRuleNS_9allocatorIS1_EEE24__emplace_back_slow_pathIJRKNS_12basic_stringIcNS_11char_traitsIcEENS2_IcEEEEEEEvDpOT_
FNDA:39,_ZNSt3__16vectorI11GrammarRuleNS_9allocatorIS1_EEE12emplace_backIJRKNS_12basic_stringIcNS_11char_traitsIcEENS2_IcEEEEEEERS1_DpOT_
FNDA:34,_ZNSt3__16vectorI11GrammarRuleNS_9allocatorIS1_EEE26__invalidate_all_iteratorsEv
FNF:48
FNH:21
DA:298,0
DA:343,120
DA:346,0
DA:349,120
DA:352,170
DA:359,0
DA:364,0
DA:367,170
DA:419,0
DA:420,0
DA:421,0
DA:422,0
DA:423,0
DA:448,0
DA:449,0
DA:450,0
DA:456,0
DA:458,0
DA:459,0
DA:460,0
DA:461,0
DA:464,0
DA:650,136
DA:653,170
DA:679,39
DA:692,272
DA:856,68
DA:860,68
DA:861,34
DA:862,34
DA:866,68
DA:867,34
DA:868,34
DA:903,104
DA:904,52
DA:930,34
DA:931,34
DA:932,34
DA:933,34
DA:934,34
DA:935,34
DA:936,34
DA:937,34
DA:938,34
DA:968,0
DA:969,0
DA:970,0
DA:971,0
DA:972,0
DA:973,0
DA:991,0
DA:992,0
DA:1001,34
DA:1002,34
DA:1003,0
DA:1004,34
DA:1005,34
DA:1006,0
DA:1007,34
DA:1008,34
DA:1061,0
DA:1062,0
DA:1063,0
DA:1064,0
DA:1065,0
DA:1237,0
DA:1238,0
DA:1242,0
DA:1243,0
DA:1245,0
DA:1246,0
DA:1247,0
DA:1248,0
DA:1610,8
DA:1611,8
DA:1613,8
DA:1614,8
DA:1615,8
DA:1616,8
DA:1623,47
DA:1625,39
DA:1626,78
DA:1627,39
DA:1628,39
DA:1629,39
DA:1630,39
DA:1632,8
DA:1633,47
DA:1660,26
DA:1661,26
DA:1663,26
DA:1664,26
DA:1665,26
DA:1666,26
DA:1678,39
DA:1680,13
DA:1681,26
DA:1682,13
DA:1683,13
DA:1684,13
DA:1685,13
DA:1686,13
DA:1688,26
DA:1690,39
DA:2144,34
LF:105
LH:64
end_of_record
SF:/Users/evgenabramov/MIPT-Formal-Practice2/Grammar.cpp
FN:3,_ZN7Grammar7AddRuleERKNSt3__112basic_stringIcNS0_11char_traitsIcEENS0_9allocatorIcEEEE
FN:7,_ZN7Grammar7AddRuleERK11GrammarRule
FNDA:39,_ZN7Grammar7AddRuleERKNSt3__112basic_stringIcNS0_11char_traitsIcEENS0_9allocatorIcEEEE
FNDA:47,_ZN7Grammar7AddRuleERK11GrammarRule
FNF:2
FNH:2
DA:4,39
DA:5,39
DA:8,47
DA:9,47
LF:4
LH:4
end_of_record
SF:/Users/evgenabramov/MIPT-Formal-Practice2/GrammarRule.h
FN:8,_ZN11GrammarRuleD1Ev
FN:8,_ZN11GrammarRuleD2Ev
FN:13,_ZN11GrammarRuleC1ERKS_
FN:13,_ZN11GrammarRuleC2ERKS_
FNDA:0,_ZN11GrammarRuleD1Ev
FNDA:0,_ZN11GrammarRuleD2Ev
FNDA:0,_ZN11GrammarRuleC1ERKS_
FNDA:0,_ZN11GrammarRuleC2ERKS_
FNF:4
FNH:0
DA:8,0
DA:13,0
LF:2
LH:0
end_of_record
TN:
SF:/Library/Developer/CommandLineTools/usr/include/c++/v1/__locale
FN:232,_ZNSt3__1L9use_facetINS_5ctypeIcEEEERKT_RKNS_6localeE
FN:647,_ZNKSt3__15ctypeIcE5widenEc
FNDA:37,_ZNSt3__1L9use_facetINS_5ctypeIcEEEERKT_RKNS_6localeE
FNDA:37,_ZNKSt3__15ctypeIcE5widenEc
FNF:2
FNH:2
DA:234,37
DA:649,37
LF:2
LH:2
end_of_record
SF:/Library/Developer/CommandLineTools/usr/include/c++/v1/__string
FN:217,_ZNSt3__111char_traitsIcE6lengthEPKc
FN:236,_ZNSt3__111char_traitsIcE11eq_int_typeEii
FN:238,_ZNSt3__111char_traitsIcE3eofEv
FNDA:209,_ZNSt3__111char_traitsIcE6lengthEPKc
FNDA:465,_ZNSt3__111char_traitsIcE11eq_int_typeEii
FNDA:537,_ZNSt3__111char_traitsIcE3eofEv
FNF:3
FNH:3
DA:217,209
DA:237,465
DA:239,1074
LF:3
LH:3
end_of_record
SF:/Library/Developer/CommandLineTools/usr/include/c++/v1/__tree
FN:560,_ZNSt3__122__tree_key_value_typesI9SituationE9__get_ptrERS1_
FN:959,_ZNSt3__13setI9SituationNS_4lessIS1_EENS_9allocatorIS1_EEED2Ev
FN:959,_ZNSt3__13setI9SituationNS_4lessIS1_EENS_9allocatorIS1_EEED1Ev
FN:1039,_ZNKSt3__16__treeI9SituationNS_4lessIS1_EENS_9allocatorIS1_EEE10__end_nodeEv
FN:1048,_ZNSt3__16__treeI9SituationNS_4lessIS1_EENS_9allocatorIS1_EEE12__node_allocEv
FN:1075,_ZNKSt3__16__treeI9SituationNS_4lessIS1_EENS_9allocatorIS1_EEE6__rootEv
FN:1827,_ZNSt3__16__treeI9SituationNS_4lessIS1_EENS_9allocatorIS1_EEED1Ev
FN:1827,_ZNSt3__16__treeI9SituationNS_4lessIS1_EENS_9allocatorIS1_EEED2Ev
FN:1836,_ZNSt3__16__treeI9SituationNS_4lessIS1_EENS_9allocatorIS1_EEE7destroyEPNS_11__tree_nodeIS1_PvEE
FNDA:1985,_ZNSt3__122__tree_key_value_typesI9SituationE9__get_ptrERS1_
FNDA:268,_ZNSt3__13setI9SituationNS_4lessIS1_EENS_9allocatorIS1_EEED1Ev
FNDA:268,_ZNSt3__13setI9SituationNS_4lessIS1_EENS_9allocatorIS1_EEED2Ev
FNDA:268,_ZNKSt3__16__treeI9SituationNS_4lessIS1_EENS_9allocatorIS1_EEE10__end_nodeEv
FNDA:1985,_ZNSt3__16__treeI9SituationNS_4lessIS1_EENS_9allocatorIS1_EEE12__node_allocEv
FNDA:268,_ZNKSt3__16__treeI9SituationNS_4lessIS1_EENS_9allocatorIS1_EEE6__rootEv
FNDA:268,_ZNSt3__16__treeI9SituationNS_4lessIS1_EENS_9allocatorIS1_EEED1Ev
FNDA:268,_ZNSt3__16__treeI9SituationNS_4lessIS1_EENS_9allocatorIS1_EEED2Ev
FNDA:4238,_ZNSt3__16__treeI9SituationNS_4lessIS1_EENS_9allocatorIS1_EEE7destroyEPNS_11__tree_nodeIS1_PvEE
FNF:9
FNH:9
DA:561,1985
DA:959,536
DA:1041,268
DA:1042,268
DA:1043,268
DA:1048,1985
DA:1076,268
DA:1828,268
DA:1831,268
DA:1832,536
DA:1838,4238
DA:1840,935
DA:1841,935
DA:1842,935
DA:1843,2920
DA:1844,1985
DA:1845,1985
DA:1846,4238
LF:18
LH:18
end_of_record
SF:/Library/Developer/CommandLineTools/usr/include/c++/v1/algorithm
FN:721,_ZNKSt3__16__lessImmEclERKmS3_
FN:2560,_ZNSt3__1L3minImNS_6__lessImmEEEERKT_S5_S5_T0_
FN:2568,_ZNSt3__1L3minImEERKT_S3_S3_
FNDA:114041,_ZNKSt3__16__lessImmEclERKmS3_
FNDA:114041,_ZNSt3__1L3minImNS_6__lessImmEEEERKT_S5_S5_T0_
FNDA:114041,_ZNSt3__1L3minImEERKT_S3_S3_
FNF:3
FNH:3
DA:721,114041
DA:2562,342123
DA:2570,114041
LF:3
LH:3
end_of_record
SF:/Library/Developer/CommandLineTools/usr/include/c++/v1/initializer_list
FN:85,_ZNKSt16initializer_listINSt3__112basic_stringIcNS0_11char_traitsIcEENS0_9allocatorIcEEEEE4sizeEv
FN:89,_ZNKSt16initializer_listINSt3__112basic_stringIcNS0_11char_traitsIcEENS0_9allocatorIcEEEEE5beginEv
FN:93,_ZNKSt16initializer_listINSt3__112basic_stringIcNS0_11char_traitsIcEENS0_9allocatorIcEEEEE3endEv
FNDA:24,_ZNKSt16initializer_listINSt3__112basic_stringIcNS0_11char_traitsIcEENS0_9allocatorIcEEEEE4sizeEv
FNDA:8,_ZNKSt16initializer_listINSt3__112basic_stringIcNS0_11char_traitsIcEENS0_9allocatorIcEEEEE5beginEv
FNDA:8,_ZNKSt16initializer_listINSt3__112basic_stringIcNS0_11char_traitsIcEENS0_9allocatorIcEEEEE3endEv
FNF:3
FNH:3
DA:85,24
DA:89,8
DA:93,8
LF:3
LH:3
end_of_record
SF:/Library/Developer/CommandLineTools/usr/include/c++/v1/ios
FN:340,_ZNKSt3__18ios_base5rdbufEv
FN:440,_ZNKSt3__18ios_base5flagsEv
FN:502,_ZNKSt3__18ios_base5widthEv
FN:509,_ZNSt3__18ios_base5widthEl
FN:527,_ZNSt3__18ios_base8setstateEj
FN:614,_ZNSt3__19basic_iosIcNS_11char_traitsIcEEE8setstateEj
FN:719,_ZNKSt3__19basic_iosIcNS_11char_traitsIcEEE5rdbufEv
FN:757,_ZNKSt3__19basic_iosIcNS_11char_traitsIcEEE5widenEc
FN:765,_ZNKSt3__19basic_iosIcNS_11char_traitsIcEEE4fillEv
FNDA:383,_ZNKSt3__18ios_base5rdbufEv
FNDA:383,_ZNKSt3__18ios_base5flagsEv
FNDA:383,_ZNKSt3__18ios_base5widthEv
FNDA:383,_ZNSt3__18ios_base5widthEl
FNDA:0,_ZNSt3__18ios_base8setstateEj
FNDA:0,_ZNSt3__19basic_iosIcNS_11char_traitsIcEEE8setstateEj
FNDA:383,_ZNKSt3__19basic_iosIcNS_11char_traitsIcEEE5rdbufEv
FNDA:37,_ZNKSt3__19basic_iosIcNS_11char_traitsIcEEE5widenEc
FNDA:383,_ZNKSt3__19basic_iosIcNS_11char_traitsIcEEE4fillEv
FNF:9
FNH:7
DA:340,383
DA:442,383
DA:504,383
DA:511,383
DA:512,383
DA:513,383
DA:529,0
DA:530,0
DA:614,0
DA:721,383
DA:759,111
DA:760,0
DA:767,383
DA:768,37
DA:769,383
LF:15
LH:11
end_of_record
SF:/Library/Developer/CommandLineTools/usr/include/c++/v1/iterator
FN:1049,_ZNSt3__119ostreambuf_iteratorIcNS_11char_traitsIcEEEC2ERNS_13basic_ostreamIcS2_EE
FN:1049,_ZNSt3__119ostreambuf_iteratorIcNS_11char_traitsIcEEEC1ERNS_13basic_ostreamIcS2_EE
FN:1062,_ZNKSt3__119ostreambuf_iteratorIcNS_11char_traitsIcEEE6failedEv
FN:1350,_ZNKSt3__111__wrap_iterIPNS_12basic_stringIcNS_11char_traitsIcEENS_9allocatorIcEEEEEdeEv
FN:1366,_ZNSt3__111__wrap_iterIPNS_12basic_stringIcNS_11char_traitsIcEENS_9allocatorIcEEEEEppEv
FN:1413,_ZNKSt3__111__wrap_iterIPNS_12basic_stringIcNS_11char_traitsIcEENS_9allocatorIcEEEEE4baseEv
FN:1422,_ZNSt3__111__wrap_iterIPNS_12basic_stringIcNS_11char_traitsIcEENS_9allocatorIcEEEEEC2ES7_
FN:1422,_ZNSt3__111__wrap_iterIPNS_12basic_stringIcNS_11char_traitsIcEENS_9allocatorIcEEEEEC1ES7_
FN:1427,_ZNSt3__16vectorI11GrammarRuleNS_9allocatorIS1_EEED2Ev
FN:1427,_ZNSt3__16vectorIN11GrammarRule6SymbolENS_9allocatorIS2_EEED2Ev
FN:1427,_ZNSt3__16vectorINS_3setI9SituationNS_4lessIS2_EENS_9allocatorIS2_EEEENS5_IS7_EEED2Ev
FN:1427,_ZNSt3__16vectorINS_3setI9SituationNS_4lessIS2_EENS_9allocatorIS2_EEEENS5_IS7_EEED1Ev
FN:1427,_ZNSt3__16vectorIN11GrammarRule6SymbolENS_9allocatorIS2_EEED1Ev
FN:1427,_ZNSt3__16vectorI11GrammarRuleNS_9allocatorIS1_EEED1Ev
FN:1507,_ZNSt3__1eqIPNS_12basic_stringIcNS_11char_traitsIcEENS_9allocatorIcEEEES7_EEbRKNS_11__wrap_iterIT_EERKNS8_IT0_EE
FN:1559,_ZNSt3__1neIPNS_12basic_stringIcNS_11char_traitsIcEENS_9allocatorIcEEEEEEbRKNS_11__wrap_iterIT_EESC_
FNDA:383,_ZNSt3__119ostreambuf_iteratorIcNS_11char_traitsIcEEEC1ERNS_13basic_ostreamIcS2_EE
FNDA:383,_ZNSt3__119ostreambuf_iteratorIcNS_11char_traitsIcEEEC2ERNS_13basic_ostreamIcS2_EE
FNDA:383,_ZNKSt3__119ostreambuf_iteratorIcNS_11char_traitsIcEEE6failedEv
FNDA:39,_ZNKSt3__111__wrap_iterIPNS_12basic_stringIcNS_11char_traitsIcEENS_9allocatorIcEEEEEdeEv
FNDA:39,_ZNSt3__111__wrap_iterIPNS_12basic_stringIcNS_11char_traitsIcEENS_9allocatorIcEEEEEppEv
FNDA:94,_ZNKSt3__111__wrap_iterIPNS_12basic_stringIcNS_11char_traitsIcEENS_9allocatorIcEEEEE4baseEv
FNDA:16,_ZNSt3__111__wrap_iterIPNS_12basic_stringIcNS_11char_traitsIcEENS_9allocatorIcEEEEEC1ES7_
FNDA:16,_ZNSt3__111__wrap_iterIPNS_12basic_stringIcNS_11char_traitsIcEENS_9allocatorIcEEEEEC2ES7_
FNDA:118218,_ZNSt3__16vectorIN11GrammarRule6SymbolENS_9allocatorIS2_EEED1Ev
FNDA:118218,_ZNSt3__16vectorIN11GrammarRule6SymbolENS_9allocatorIS2_EEED2Ev
FNDA:63,_ZNSt3__16vectorI11GrammarRuleNS_9allocatorIS1_EEED1Ev
FNDA:63,_ZNSt3__16vectorI11GrammarRuleNS_9allocatorIS1_EEED2Ev
FNDA:8,_ZNSt3__16vectorINS_3setI9SituationNS_4lessIS2_EENS_9allocatorIS2_EEEENS5_IS7_EEED1Ev
FNDA:8,_ZNSt3__16vectorINS_3setI9SituationNS_4lessIS2_EENS_9allocatorIS2_EEEENS5_IS7_EEED2Ev
FNDA:47,_ZNSt3__1eqIPNS_12basic_stringIcNS_11char_traitsIcEENS_9allocatorIcEEEES7_EEbRKNS_11__wrap_iterIT_EERKNS8_IT0_EE
FNDA:47,_ZNSt3__1neIPNS_12basic_stringIcNS_11char_traitsIcEENS_9allocatorIcEEEEEEbRKNS_11__wrap_iterIT_EESC_
FNF:16
FNH:16
DA:1050,1149
DA:1062,383
DA:1356,39
DA:1372,39
DA:1373,39
DA:1413,94
DA:1422,32
DA:1427,236578
DA:1509,47
DA:1561,47
LF:10
LH:10
end_of_record
SF:/Library/Developer/CommandLineTools/usr/include/c++/v1/limits
FN:213,_ZNSt3__123__libcpp_numeric_limitsIlLb1EE3maxEv
FN:450,_ZNSt3__114numeric_limitsIlE3maxEv
FNDA:114041,_ZNSt3__123__libcpp_numeric_limitsIlLb1EE3maxEv
FNDA:114041,_ZNSt3__114numeric_limitsIlE3maxEv
FNF:2
FNH:2
DA:213,228082
DA:450,228082
LF:2
LH:2
end_of_record
SF:/Library/Developer/CommandLineTools/usr/include/c++/v1/locale
FN:1382,_ZNSt3__116__pad_and_outputIcNS_11char_traitsIcEEEENS_19ostreambuf_iteratorIT_T0_EES6_PKS4_S8_S8_RNS_8ios_baseES4_
FNDA:383,_ZNSt3__116__pad_and_outputIcNS_11char_traitsIcEEEENS_19ostreambuf_iteratorIT_T0_EES6_PKS4_S8_S8_RNS_8ios_baseES4_
FNF:1
FNH:1
DA:1386,383
DA:1387,0
DA:1388,383
DA:1389,383
DA:1390,383
DA:1391,0
DA:1393,383
DA:1394,383
DA:1395,383
DA:1397,0
DA:1399,0
DA:1400,0
DA:1402,0
DA:1403,383
DA:1405,0
DA:1406,0
DA:1408,0
DA:1409,0
DA:1411,0
DA:1412,383
DA:1413,383
DA:1415,383
DA:1417,0
DA:1418,0
DA:1420,383
DA:1421,383
DA:1422,383
DA:1423,383
LF:28
LH:15
end_of_record
SF:/Library/Developer/CommandLineTools/usr/include/c++/v1/memory
FN:987,_ZNSt3__114pointer_traitsIPcE10pointer_toERc
FN:987,_ZNSt3__114pointer_traitsIPKcE10pointer_toERS1_
FN:987,_ZNSt3__114pointer_traitsIPNS_15__tree_end_nodeIPNS_16__tree_node_baseIPvEEEEE10pointer_toERS6_
FN:1105,_ZNSt3__1L16__to_raw_pointerIcEEPT_S2_
FN:1105,_ZNSt3__1L16__to_raw_pointerINS_3setI9SituationNS_4lessIS2_EENS_9allocatorIS2_EEEEEEPT_S9_
FN:1105,_ZNSt3__1L16__to_raw_pointerIN11GrammarRule6SymbolEEEPT_S4_
FN:1105,_ZNSt3__1L16__to_raw_pointerINS_12basic_stringIcNS_11char_traitsIcEENS_9allocatorIcEEEEEEPT_S8_
FN:1105,_ZNSt3__1L16__to_raw_pointerIKcEEPT_S3_
FN:1105,_ZNSt3__1L16__to_raw_pointerI11GrammarRuleEEPT_S3_
FN:1545,_ZNSt3__116allocator_traitsINS_9allocatorINS_12basic_stringIcNS_11char_traitsIcEENS1_IcEEEEEEE8allocateERS7_m
FN:1545,_ZNSt3__116allocator_traitsINS_9allocatorIN11GrammarRule6SymbolEEEE8allocateERS4_m
FN:1545,_ZNSt3__116allocator_traitsINS_9allocatorI11GrammarRuleEEE8allocateERS3_m
FN:1553,_ZNSt3__116allocator_traitsINS_9allocatorINS_12basic_stringIcNS_11char_traitsIcEENS1_IcEEEEEEE10deallocateERS7_PS6_m
FN:1553,_ZNSt3__116allocator_traitsINS_9allocatorINS_3setI9SituationNS_4lessIS3_EENS1_IS3_EEEEEEE10deallocateERS8_PS7_m
FN:1553,_ZNSt3__116allocator_traitsINS_9allocatorINS_11__tree_nodeI9SituationPvEEEEE10deallocateERS6_PS5_m
FN:1553,_ZNSt3__116allocator_traitsINS_9allocatorI11GrammarRuleEEE10deallocateERS3_PS2_m
FN:1553,_ZNSt3__116allocator_traitsINS_9allocatorIN11GrammarRule6SymbolEEEE10deallocateERS4_PS3_m
FN:1559,_ZNSt3__116allocator_traitsINS_9allocatorI11GrammarRuleEEE9constructIS2_JRS2_EEEvRS3_PT_DpOT0_
FN:1559,_ZNSt3__116allocator_traitsINS_9allocatorINS_12basic_stringIcNS_11char_traitsIcEENS1_IcEEEEEEE9constructIS6_JRKS6_EEEvRS7_PT_DpOT0_
FN:1594,_ZNSt3__116allocator_traitsINS_9allocatorI11GrammarRuleEEE7destroyIS2_EEvRS3_PT_
FN:1594,_ZNSt3__116allocator_traitsINS_9allocatorIN11GrammarRule6SymbolEEEE7destroyIS3_EEvRS4_PT_
FN:1594,_ZNSt3__116allocator_traitsINS_9allocatorINS_12basic_stringIcNS_11char_traitsIcEENS1_IcEEEEEEE7destroyIS6_EEvRS7_PT_
FN:1594,_ZNSt3__116allocator_traitsINS_9allocatorINS_3setI9SituationNS_4lessIS3_EENS1_IS3_EEEEEEE7destroyIS7_EEvRS8_PT_
FN:1594,_ZNSt3__116allocator_traitsINS_9allocatorINS_11__tree_nodeI9SituationPvEEEEE7destroyIS3_EEvRS6_PT_
FN:1598,_ZNSt3__116allocator_traitsINS_9allocatorI11GrammarRuleEEE8max_sizeERKS3_
FN:1598,_ZNSt3__116allocator_traitsINS_9allocatorINS_12basic_stringIcNS_11char_traitsIcEENS1_IcEEEEEEE8max_sizeERKS7_
FN:1598,_ZNSt3__116allocator_traitsINS_9allocatorIN11GrammarRule6SymbolEEEE8max_sizeERKS4_
FN:1603,_ZNSt3__116allocator_traitsINS_9allocatorIN11GrammarRule6SymbolEEEE37select_on_container_copy_constructionERKS4_
FN:1603,_ZNSt3__116allocator_traitsINS_9allocatorI11GrammarRuleEEE37select_on_container_copy_constructionERKS3_
FN:1642,_ZNSt3__116allocator_traitsINS_9allocatorI11GrammarRuleEEE25__construct_range_forwardIPS2_S6_EEvRS3_T_S8_RT0_
FN:1642,_ZNSt3__116allocator_traitsINS_9allocatorINS_12basic_stringIcNS_11char_traitsIcEENS1_IcEEEEEEE25__construct_range_forwardIPKS6_PS6_EEvRS7_T_SE_RT0_
FN:1661,_ZNSt3__116allocator_traitsINS_9allocatorIN11GrammarRule6SymbolEEEE25__construct_range_forwardIS3_S3_S3_S3_EENS_9enable_ifIXaaaasr31is_trivially_move_constructibleIT0_EE5valuesr7is_sameIT1_T2_EE5valueooL_ZNS_17integral_constantIbLb1EE5valueEEntsr15__has_constructIS4_PS8_RT_EE5valueEvE4typeERS4_PSE_SJ_RSD_
FN:1716,_ZNSt3__116allocator_traitsINS_9allocatorINS_12basic_stringIcNS_11char_traitsIcEENS1_IcEEEEEEE11__constructIS6_JRKS6_EEEvNS_17integral_constantIbLb1EEERS7_PT_DpOT0_
FN:1716,_ZNSt3__116allocator_traitsINS_9allocatorI11GrammarRuleEEE11__constructIS2_JRS2_EEEvNS_17integral_constantIbLb1EEERS3_PT_DpOT0_
FN:1741,_ZNSt3__116allocator_traitsINS_9allocatorI11GrammarRuleEEE9__destroyIS2_EEvNS_17integral_constantIbLb1EEERS3_PT_
FN:1741,_ZNSt3__116allocator_traitsINS_9allocatorIN11GrammarRule6SymbolEEEE9__destroyIS3_EEvNS_17integral_constantIbLb1EEERS4_PT_
FN:1741,_ZNSt3__116allocator_traitsINS_9allocatorINS_12basic_stringIcNS_11char_traitsIcEENS1_IcEEEEEEE9__destroyIS6_EEvNS_17integral_constantIbLb1EEERS7_PT_
FN:1741,_ZNSt3__116allocator_traitsINS_9allocatorINS_3setI9SituationNS_4lessIS3_EENS1_IS3_EEEEEEE9__destroyIS7_EEvNS_17integral_constantIbLb1EEERS8_PT_
FN:1745,_ZNSt3__116allocator_traitsINS_9allocatorINS_11__tree_nodeI9SituationPvEEEEE9__destroyIS3_EEvNS_17integral_constantIbLb0EEERS6_PT_
FN:1751,_ZNSt3__116allocator_traitsINS_9allocatorINS_12basic_stringIcNS_11char_traitsIcEENS1_IcEEEEEEE10__max_sizeENS_17integral_constantIbLb1EEERKS7_
FN:1751,_ZNSt3__116allocator_traitsINS_9allocatorIN11GrammarRule6SymbolEEEE10__max_sizeENS_17integral_constantIbLb1EEERKS4_
FN:1751,_ZNSt3__116allocator_traitsINS_9allocatorI11GrammarRuleEEE10__max_sizeENS_17integral_constantIbLb1EEERKS3_
FN:1763,_ZNSt3__116allocator_traitsINS_9allocatorIN11GrammarRule6SymbolEEEE39__select_on_container_copy_constructionENS_17integral_constantIbLb0EEERKS4_
FN:1763,_ZNSt3__116allocator_traitsINS_9allocatorI11GrammarRuleEEE39__select_on_container_copy_constructionENS_17integral_constantIbLb0EEERKS3_
FN:1797,_ZNSt3__19allocatorINS_3setI9SituationNS_4lessIS2_EENS0_IS2_EEEEEC2Ev
FN:1797,_ZNSt3__19allocatorI11GrammarRuleEC2Ev
FN:1797,_ZNSt3__19allocatorINS_12basic_stringIcNS_11char_traitsIcEENS0_IcEEEEEC2Ev
FN:1797,_ZNSt3__19allocatorIcEC2Ev
FN:1808,_ZNSt3__19allocatorI11GrammarRuleE8allocateEmPKv
FN:1808,_ZNSt3__19allocatorINS_12basic_stringIcNS_11char_traitsIcEENS0_IcEEEEE8allocateEmPKv
FN:1808,_ZNSt3__19allocatorIN11GrammarRule6SymbolEE8allocateEmPKv
FN:1815,_ZNSt3__19allocatorINS_3setI9SituationNS_4lessIS2_EENS0_IS2_EEEEE10deallocateEPS6_m
FN:1815,_ZNSt3__19allocatorINS_11__tree_nodeI9SituationPvEEE10deallocateEPS4_m
FN:1815,_ZNSt3__19allocatorI11GrammarRuleE10deallocateEPS1_m
FN:1815,_ZNSt3__19allocatorINS_12basic_stringIcNS_11char_traitsIcEENS0_IcEEEEE10deallocateEPS5_m
FN:1815,_ZNSt3__19allocatorIN11GrammarRule6SymbolEE10deallocateEPS2_m
FN:1817,_ZNKSt3__19allocatorIN11GrammarRule6SymbolEE8max_sizeEv
FN:1817,_ZNKSt3__19allocatorINS_12basic_stringIcNS_11char_traitsIcEENS0_IcEEEEE8max_sizeEv
FN:1817,_ZNKSt3__19allocatorI11GrammarRuleE8max_sizeEv
FN:1823,_ZNSt3__19allocatorI11GrammarRuleE9constructIS1_JRS1_EEEvPT_DpOT0_
FN:1823,_ZNSt3__19allocatorINS_12basic_stringIcNS_11char_traitsIcEENS0_IcEEEEE9constructIS5_JRKS5_EEEvPT_DpOT0_
FN:1880,_ZNSt3__19allocatorIN11GrammarRule6SymbolEE7destroyEPS2_
FN:1880,_ZNSt3__19allocatorI11GrammarRuleE7destroyEPS1_
FN:1880,_ZNSt3__19allocatorINS_12basic_stringIcNS_11char_traitsIcEENS0_IcEEEEE7destroyEPS5_
FN:1880,_ZNSt3__19allocatorINS_3setI9SituationNS_4lessIS2_EENS0_IS2_EEEEE7destroyEPS6_
FN:2139,_ZNSt3__122__compressed_pair_elemINS_12basic_stringIcNS_11char_traitsIcEENS_9allocatorIcEEE5__repELi0ELb0EEC2Ev
FN:2146,_ZNSt3__122__compressed_pair_elemIPN11GrammarRule6SymbolELi0ELb0EEC2IDnvEEOT_
FN:2146,_ZNSt3__122__compressed_pair_elemIPNS_12basic_stringIcNS_11char_traitsIcEENS_9allocatorIcEEEELi0ELb0EEC2IS7_vEEOT_
FN:2146,_ZNSt3__122__compressed_pair_elemIP11GrammarRuleLi0ELb0EEC2IDnvEEOT_
FN:2146,_ZNSt3__122__compressed_pair_elemIPNS_12basic_stringIcNS_11char_traitsIcEENS_9allocatorIcEEEELi0ELb0EEC2IDnvEEOT_
FN:2146,_ZNSt3__122__compressed_pair_elemIPNS_3setI9SituationNS_4lessIS2_EENS_9allocatorIS2_EEEELi0ELb0EEC2IDnvEEOT_
FN:2160,_ZNSt3__122__compressed_pair_elemIPNS_12basic_stringIcNS_11char_traitsIcEENS_9allocatorIcEEEELi0ELb0EE5__getEv
FN:2160,_ZNSt3__122__compressed_pair_elemINS_12basic_stringIcNS_11char_traitsIcEENS_9allocatorIcEEE5__repELi0ELb0EE5__getEv
FN:2160,_ZNSt3__122__compressed_pair_elemIP11GrammarRuleLi0ELb0EE5__getEv
FN:2160,_ZNSt3__122__compressed_pair_elemIPN11GrammarRule6SymbolELi0ELb0EE5__getEv
FN:2160,_ZNSt3__122__compressed_pair_elemIPNS_18basic_stringstreamIcNS_11char_traitsIcEENS_9allocatorIcEEEELi0ELb0EE5__getEv
FN:2162,_ZNKSt3__122__compressed_pair_elemIPNS_3setI9SituationNS_4lessIS2_EENS_9allocatorIS2_EEEELi0ELb0EE5__getEv
FN:2162,_ZNKSt3__122__compressed_pair_elemIPN11GrammarRule6SymbolELi0ELb0EE5__getEv
FN:2162,_ZNKSt3__122__compressed_pair_elemIPNS_12basic_stringIcNS_11char_traitsIcEENS_9allocatorIcEEEELi0ELb0EE5__getEv
FN:2162,_ZNKSt3__122__compressed_pair_elemIP11GrammarRuleLi0ELb0EE5__getEv
FN:2162,_ZNKSt3__122__compressed_pair_elemINS_15__tree_end_nodeIPNS_16__tree_node_baseIPvEEEELi0ELb0EE5__getEv
FN:2162,_ZNKSt3__122__compressed_pair_elemINS_12basic_stringIcNS_11char_traitsIcEENS_9allocatorIcEEE5__repELi0ELb0EE5__getEv
FN:2176,_ZNSt3__122__compressed_pair_elemINS_9allocatorIcEELi1ELb1EEC2Ev
FN:2176,_ZNSt3__122__compressed_pair_elemINS_9allocatorINS_3setI9SituationNS_4lessIS3_EENS1_IS3_EEEEEELi1ELb1EEC2Ev
FN:2176,_ZNSt3__122__compressed_pair_elemINS_9allocatorINS_12basic_stringIcNS_11char_traitsIcEENS1_IcEEEEEELi1ELb1EEC2Ev
FN:2176,_ZNSt3__122__compressed_pair_elemINS_9allocatorI11GrammarRuleEELi1ELb1EEC2Ev
FN:2183,_ZNSt3__122__compressed_pair_elemINS_9allocatorIN11GrammarRule6SymbolEEELi1ELb1EEC2IS4_vEEOT_
FN:2183,_ZNSt3__122__compressed_pair_elemINS_9allocatorI11GrammarRuleEELi1ELb1EEC2IS3_vEEOT_
FN:2198,_ZNSt3__122__compressed_pair_elemINS_9allocatorIN11GrammarRule6SymbolEEELi1ELb1EE5__getEv
FN:2198,_ZNSt3__122__compressed_pair_elemINS_9allocatorI11GrammarRuleEELi1ELb1EE5__getEv
FN:2198,_ZNSt3__122__compressed_pair_elemINS_9allocatorINS_3setI9SituationNS_4lessIS3_EENS1_IS3_EEEEEELi1ELb1EE5__getEv
FN:2198,_ZNSt3__122__compressed_pair_elemINS_14default_deleteINS_18basic_stringstreamIcNS_11char_traitsIcEENS_9allocatorIcEEEEEELi1ELb1EE5__getEv
FN:2198,_ZNSt3__122__compressed_pair_elemINS_9allocatorINS_11__tree_nodeI9SituationPvEEEELi1ELb1EE5__getEv
FN:2198,_ZNSt3__122__compressed_pair_elemINS_9allocatorINS_12basic_stringIcNS_11char_traitsIcEENS1_IcEEEEEELi1ELb1EE5__getEv
FN:2198,_ZNSt3__122__compressed_pair_elemINS_14default_deleteINS_12basic_stringIcNS_11char_traitsIcEENS_9allocatorIcEEEEEELi1ELb1EE5__getEv
FN:2200,_ZNKSt3__122__compressed_pair_elemINS_9allocatorI11GrammarRuleEELi1ELb1EE5__getEv
FN:2200,_ZNKSt3__122__compressed_pair_elemINS_9allocatorIN11GrammarRule6SymbolEEELi1ELb1EE5__getEv
FN:2200,_ZNKSt3__122__compressed_pair_elemINS_9allocatorINS_12basic_stringIcNS_11char_traitsIcEENS1_IcEEEEEELi1ELb1EE5__getEv
FN:2230,_ZNSt3__117__compressed_pairINS_12basic_stringIcNS_11char_traitsIcEENS_9allocatorIcEEE5__repES5_EC1ILb1EvEEv
FN:2230,_ZNSt3__117__compressed_pairINS_12basic_stringIcNS_11char_traitsIcEENS_9allocatorIcEEE5__repES5_EC2ILb1EvEEv
FN:2236,_ZNSt3__117__compressed_pairIPNS_12basic_stringIcNS_11char_traitsIcEENS_9allocatorIcEEEENS4_IS6_EEEC2IDnLb1EEEOT_
FN:2236,_ZNSt3__117__compressed_pairIP11GrammarRuleNS_9allocatorIS1_EEEC1IDnLb1EEEOT_
FN:2236,_ZNSt3__117__compressed_pairIPNS_12basic_stringIcNS_11char_traitsIcEENS_9allocatorIcEEEENS4_IS6_EEEC1IDnLb1EEEOT_
FN:2236,_ZNSt3__117__compressed_pairIPNS_12basic_stringIcNS_11char_traitsIcEENS_9allocatorIcEEEENS_14default_deleteIS6_EEEC1IS7_Lb1EEEOT_
FN:2236,_ZNSt3__117__compressed_pairIPNS_3setI9SituationNS_4lessIS2_EENS_9allocatorIS2_EEEENS5_IS7_EEEC2IDnLb1EEEOT_
FN:2236,_ZNSt3__117__compressed_pairIP11GrammarRuleNS_9allocatorIS1_EEEC2IDnLb1EEEOT_
FN:2236,_ZNSt3__117__compressed_pairIPNS_3setI9SituationNS_4lessIS2_EENS_9allocatorIS2_EEEENS5_IS7_EEEC1IDnLb1EEEOT_
FN:2236,_ZNSt3__117__compressed_pairIPNS_12basic_stringIcNS_11char_traitsIcEENS_9allocatorIcEEEENS_14default_deleteIS6_EEEC2IS7_Lb1EEEOT_
FN:2246,_ZNSt3__117__compressed_pairIPN11GrammarRule6SymbolENS_9allocatorIS2_EEEC1IDnS5_EEOT_OT0_
FN:2246,_ZNSt3__117__compressed_pairIP11GrammarRuleNS_9allocatorIS1_EEEC1IDnS4_EEOT_OT0_
FN:2246,_ZNSt3__117__compressed_pairIPN11GrammarRule6SymbolENS_9allocatorIS2_EEEC2IDnS5_EEOT_OT0_
FN:2246,_ZNSt3__117__compressed_pairIP11GrammarRuleNS_9allocatorIS1_EEEC2IDnS4_EEOT_OT0_
FN:2275,_ZNSt3__117__compressed_pairINS_12basic_stringIcNS_11char_traitsIcEENS_9allocatorIcEEE5__repES5_E5firstEv
FN:2275,_ZNSt3__117__compressed_pairIP11GrammarRuleNS_9allocatorIS1_EEE5firstEv
FN:2275,_ZNSt3__117__compressed_pairIPNS_18basic_stringstreamIcNS_11char_traitsIcEENS_9allocatorIcEEEENS_14default_deleteIS6_EEE5firstEv
FN:2275,_ZNSt3__117__compressed_pairIPN11GrammarRule6SymbolENS_9allocatorIS2_EEE5firstEv
FN:2275,_ZNSt3__117__compressed_pairIPNS_12basic_stringIcNS_11char_traitsIcEENS_9allocatorIcEEEENS_14default_deleteIS6_EEE5firstEv
FN:2275,_ZNSt3__117__compressed_pairIPNS_12basic_stringIcNS_11char_traitsIcEENS_9allocatorIcEEEENS4_IS6_EEE5firstEv
FN:2280,_ZNKSt3__117__compressed_pairIPNS_12basic_stringIcNS_11char_traitsIcEENS_9allocatorIcEEEENS4_IS6_EEE5firstEv
FN:2280,_ZNKSt3__117__compressed_pairINS_12basic_stringIcNS_11char_traitsIcEENS_9allocatorIcEEE5__repES5_E5firstEv
FN:2280,_ZNKSt3__117__compressed_pairIPN11GrammarRule6SymbolENS_9allocatorIS2_EEE5firstEv
FN:2280,_ZNKSt3__117__compressed_pairIP11GrammarRuleNS_9allocatorIS1_EEE5firstEv
FN:2280,_ZNKSt3__117__compressed_pairIPNS_3setI9SituationNS_4lessIS2_EENS_9allocatorIS2_EEEENS5_IS7_EEE5firstEv
FN:2280,_ZNKSt3__117__compressed_pairINS_15__tree_end_nodeIPNS_16__tree_node_baseIPvEEEENS_9allocatorINS_11__tree_nodeI9SituationS3_EEEEE5firstEv
FN:2285,_ZNSt3__117__compressed_pairIPNS_3setI9SituationNS_4lessIS2_EENS_9allocatorIS2_EEEENS5_IS7_EEE6secondEv
FN:2285,_ZNSt3__117__compressed_pairIPNS_18basic_stringstreamIcNS_11char_traitsIcEENS_9allocatorIcEEEENS_14default_deleteIS6_EEE6secondEv
FN:2285,_ZNSt3__117__compressed_pairIPNS_12basic_stringIcNS_11char_traitsIcEENS_9allocatorIcEEEENS4_IS6_EEE6secondEv
FN:2285,_ZNSt3__117__compressed_pairIP11GrammarRuleNS_9allocatorIS1_EEE6secondEv
FN:2285,_ZNSt3__117__compressed_pairIPNS_12basic_stringIcNS_11char_traitsIcEENS_9allocatorIcEEEENS_14default_deleteIS6_EEE6secondEv
FN:2285,_ZNSt3__117__compressed_pairINS_15__tree_end_nodeIPNS_16__tree_node_baseIPvEEEENS_9allocatorINS_11__tree_nodeI9SituationS3_EEEEE6secondEv
FN:2285,_ZNSt3__117__compressed_pairIPN11GrammarRule6SymbolENS_9allocatorIS2_EEE6secondEv
FN:2290,_ZNKSt3__117__compressed_pairIPNS_12basic_stringIcNS_11char_traitsIcEENS_9allocatorIcEEEENS4_IS6_EEE6secondEv
FN:2290,_ZNKSt3__117__compressed_pairIPN11GrammarRule6SymbolENS_9allocatorIS2_EEE6secondEv
FN:2290,_ZNKSt3__117__compressed_pairIP11GrammarRuleNS_9allocatorIS1_EEE6secondEv
FN:2330,_ZNKSt3__114default_deleteINS_12basic_stringIcNS_11char_traitsIcEENS_9allocatorIcEEEEEclEPS6_
FN:2330,_ZNKSt3__114default_deleteINS_18basic_stringstreamIcNS_11char_traitsIcEENS_9allocatorIcEEEEEclEPS6_
FN:2457,_ZNSt3__110unique_ptrINS_12basic_stringIcNS_11char_traitsIcEENS_9allocatorIcEEEENS_14default_deleteIS6_EEEC2ILb1EvEEv
FN:2457,_ZNSt3__110unique_ptrINS_12basic_stringIcNS_11char_traitsIcEENS_9allocatorIcEEEENS_14default_deleteIS6_EEEC1ILb1EvEEv
FN:2602,_ZNSt3__110unique_ptrINS_12basic_stringIcNS_11char_traitsIcEENS_9allocatorIcEEEENS_14default_deleteIS6_EEED2Ev
FN:2602,_ZNSt3__110unique_ptrINS_18basic_stringstreamIcNS_11char_traitsIcEENS_9allocatorIcEEEENS_14default_deleteIS6_EEED2Ev
FN:2602,_ZNSt3__110unique_ptrINS_18basic_stringstreamIcNS_11char_traitsIcEENS_9allocatorIcEEEENS_14default_deleteIS6_EEED1Ev
FN:2602,_ZNSt3__110unique_ptrINS_12basic_stringIcNS_11char_traitsIcEENS_9allocatorIcEEEENS_14default_deleteIS6_EEED1Ev
FN:2644,_ZNSt3__110unique_ptrINS_12basic_stringIcNS_11char_traitsIcEENS_9allocatorIcEEEENS_14default_deleteIS6_EEE5resetEPS6_
FN:2644,_ZNSt3__110unique_ptrINS_18basic_stringstreamIcNS_11char_traitsIcEENS_9allocatorIcEEEENS_14default_deleteIS6_EEE5resetEPS6_
FNDA:268,_ZNSt3__114pointer_traitsIPNS_15__tree_end_nodeIPNS_16__tree_node_baseIPvEEEEE10pointer_toERS6_
FNDA:0,_ZNSt3__114pointer_traitsIPKcE10pointer_toERS1_
FNDA:0,_ZNSt3__114pointer_traitsIPcE10pointer_toERc
FNDA:815,_ZNSt3__1L16__to_raw_pointerI11GrammarRuleEEPT_S3_
FNDA:750998,_ZNSt3__1L16__to_raw_pointerIN11GrammarRule6SymbolEEEPT_S4_
FNDA:116,_ZNSt3__1L16__to_raw_pointerINS_12basic_stringIcNS_11char_traitsIcEENS_9allocatorIcEEEEEEPT_S8_
FNDA:31,_ZNSt3__1L16__to_raw_pointerINS_3setI9SituationNS_4lessIS2_EENS_9allocatorIS2_EEEEEEPT_S9_
FNDA:0,_ZNSt3__1L16__to_raw_pointerIKcEEPT_S3_
FNDA:0,_ZNSt3__1L16__to_raw_pointerIcEEPT_S2_
FNDA:55,_ZNSt3__116allocator_traitsINS_9allocatorI11GrammarRuleEEE8allocateERS3_m
FNDA:113731,_ZNSt3__116allocator_traitsINS_9allocatorIN11GrammarRule6SymbolEEEE8allocateERS4_m
FNDA:9,_ZNSt3__116allocator_traitsINS_9allocatorINS_12basic_stringIcNS_11char_traitsIcEENS1_IcEEEEEEE8allocateERS7_m
FNDA:113811,_ZNSt3__116allocator_traitsINS_9allocatorIN11GrammarRule6SymbolEEEE10deallocateERS4_PS3_m
FNDA:63,_ZNSt3__116allocator_traitsINS_9allocatorI11GrammarRuleEEE10deallocateERS3_PS2_m
FNDA:10,_ZNSt3__116allocator_traitsINS_9allocatorINS_12basic_stringIcNS_11char_traitsIcEENS1_IcEEEEEEE10deallocateERS7_PS6_m
FNDA:8,_ZNSt3__116allocator_traitsINS_9allocatorINS_3setI9SituationNS_4lessIS3_EENS1_IS3_EEEEEEE10deallocateERS8_PS7_m
FNDA:1985,_ZNSt3__116allocator_traitsINS_9allocatorINS_11__tree_nodeI9SituationPvEEEEE10deallocateERS6_PS5_m
FNDA:274,_ZNSt3__116allocator_traitsINS_9allocatorI11GrammarRuleEEE9constructIS2_JRS2_EEEvRS3_PT_DpOT0_
FNDA:39,_ZNSt3__116allocator_traitsINS_9allocatorINS_12basic_stringIcNS_11char_traitsIcEENS1_IcEEEEEEE9constructIS6_JRKS6_EEEvRS7_PT_DpOT0_
FNDA:296074,_ZNSt3__116allocator_traitsINS_9allocatorIN11GrammarRule6SymbolEEEE7destroyIS3_EEvRS4_PT_
FNDA:321,_ZNSt3__116allocator_traitsINS_9allocatorI11GrammarRuleEEE7destroyIS2_EEvRS3_PT_
FNDA:41,_ZNSt3__116allocator_traitsINS_9allocatorINS_12basic_stringIcNS_11char_traitsIcEENS1_IcEEEEEEE7destroyIS6_EEvRS7_PT_
FNDA:31,_ZNSt3__116allocator_traitsINS_9allocatorINS_3setI9SituationNS_4lessIS3_EENS1_IS3_EEEEEEE7destroyIS7_EEvRS8_PT_
FNDA:1985,_ZNSt3__116allocator_traitsINS_9allocatorINS_11__tree_nodeI9SituationPvEEEEE7destroyIS3_EEvRS6_PT_
FNDA:97,_ZNSt3__116allocator_traitsINS_9allocatorI11GrammarRuleEEE8max_sizeERKS3_
FNDA:113934,_ZNSt3__116allocator_traitsINS_9allocatorIN11GrammarRule6SymbolEEEE8max_sizeERKS4_
FNDA:10,_ZNSt3__116allocator_traitsINS_9allocatorINS_12basic_stringIcNS_11char_traitsIcEENS1_IcEEEEEEE8max_sizeERKS7_
FNDA:47,_ZNSt3__116allocator_traitsINS_9allocatorI11GrammarRuleEEE37select_on_container_copy_constructionERKS3_
FNDA:118046,_ZNSt3__116allocator_traitsINS_9allocatorIN11GrammarRule6SymbolEEEE37select_on_container_copy_constructionERKS4_
FNDA:55,_ZNSt3__116allocator_traitsINS_9allocatorI11GrammarRuleEEE25__construct_range_forwardIPS2_S6_EEvRS3_T_S8_RT0_
FNDA:8,_ZNSt3__116allocator_traitsINS_9allocatorINS_12basic_stringIcNS_11char_traitsIcEENS1_IcEEEEEEE25__construct_range_forwardIPKS6_PS6_EEvRS7_T_SE_RT0_
FNDA:113731,_ZNSt3__116allocator_traitsINS_9allocatorIN11GrammarRule6SymbolEEEE25__construct_range_forwardIS3_S3_S3_S3_EENS_9enable_ifIXaaaasr31is_trivially_move_constructibleIT0_EE5valuesr7is_sameIT1_T2_EE5valueooL_ZNS_17integral_constantIbLb1EE5valueEEntsr15__has_constructIS4_PS8_RT_EE5valueEvE4typeERS4_PSE_SJ_RSD_
FNDA:274,_ZNSt3__116allocator_traitsINS_9allocatorI11GrammarRuleEEE11__constructIS2_JRS2_EEEvNS_17integral_constantIbLb1EEERS3_PT_DpOT0_
FNDA:39,_ZNSt3__116allocator_traitsINS_9allocatorINS_12basic_stringIcNS_11char_traitsIcEENS1_IcEEEEEEE11__constructIS6_JRKS6_EEEvNS_17integral_constantIbLb1EEERS7_PT_DpOT0_
FNDA:296074,_ZNSt3__116allocator_traitsINS_9allocatorIN11GrammarRule6SymbolEEEE9__destroyIS3_EEvNS_17integral_constantIbLb1EEERS4_PT_
FNDA:321,_ZNSt3__116allocator_traitsINS_9allocatorI11GrammarRuleEEE9__destroyIS2_EEvNS_17integral_constantIbLb1EEERS3_PT_
FNDA:41,_ZNSt3__116allocator_traitsINS_9allocatorINS_12basic_stringIcNS_11char_traitsIcEENS1_IcEEEEEEE9__destroyIS6_EEvNS_17integral_constantIbLb1EEERS7_PT_
FNDA:31,_ZNSt3__116allocator_traitsINS_9allocatorINS_3setI9SituationNS_4lessIS3_EENS1_IS3_EEEEEEE9__destroyIS7_EEvNS_17integral_constantIbLb1EEERS8_PT_
FNDA:1985,_ZNSt3__116allocator_traitsINS_9allocatorINS_11__tree_nodeI9SituationPvEEEEE9__destroyIS3_EEvNS_17integral_constantIbLb0EEERS6_PT_
FNDA:97,_ZNSt3__116allocator_traitsINS_9allocatorI11GrammarRuleEEE10__max_sizeENS_17integral_constantIbLb1EEERKS3_
FNDA:113934,_ZNSt3__116allocator_traitsINS_9allocatorIN11GrammarRule6SymbolEEEE10__max_sizeENS_17integral_constantIbLb1EEERKS4_
FNDA:10,_ZNSt3__116allocator_traitsINS_9allocatorINS_12basic_stringIcNS_11char_traitsIcEENS1_IcEEEEEEE10__max_sizeENS_17integral_constantIbLb1EEERKS7_
FNDA:47,_ZNSt3__116allocator_traitsINS_9allocatorI11GrammarRuleEEE39__select_on_container_copy_constructionENS_17integral_constantIbLb0EEERKS3_
FNDA:118046,_ZNSt3__116allocator_traitsINS_9allocatorIN11GrammarRule6SymbolEEEE39__select_on_container_copy_constructionENS_17integral_constantIbLb0EEERKS4_
FNDA:102,_ZNSt3__19allocatorIcEC2Ev
FNDA:8,_ZNSt3__19allocatorINS_3setI9SituationNS_4lessIS2_EENS0_IS2_EEEEEC2Ev
FNDA:16,_ZNSt3__19allocatorI11GrammarRuleEC2Ev
FNDA:8,_ZNSt3__19allocatorINS_12basic_stringIcNS_11char_traitsIcEENS0_IcEEEEEC2Ev
FNDA:55,_ZNSt3__19allocatorI11GrammarRuleE8allocateEmPKv
FNDA:113731,_ZNSt3__19allocatorIN11GrammarRule6SymbolEE8allocateEmPKv
FNDA:9,_ZNSt3__19allocatorINS_12basic_stringIcNS_11char_traitsIcEENS0_IcEEEEE8allocateEmPKv
FNDA:113811,_ZNSt3__19allocatorIN11GrammarRule6SymbolEE10deallocateEPS2_m
FNDA:63,_ZNSt3__19allocatorI11GrammarRuleE10deallocateEPS1_m
FNDA:10,_ZNSt3__19allocatorINS_12basic_stringIcNS_11char_traitsIcEENS0_IcEEEEE10deallocateEPS5_m
FNDA:1985,_ZNSt3__19allocatorINS_11__tree_nodeI9SituationPvEEE10deallocateEPS4_m
FNDA:8,_ZNSt3__19allocatorINS_3setI9SituationNS_4lessIS2_EENS0_IS2_EEEEE10deallocateEPS6_m
FNDA:152,_ZNKSt3__19allocatorI11GrammarRuleE8max_sizeEv
FNDA:227665,_ZNKSt3__19allocatorIN11GrammarRule6SymbolEE8max_sizeEv
FNDA:19,_ZNKSt3__19allocatorINS_12basic_stringIcNS_11char_traitsIcEENS0_IcEEEEE8max_sizeEv
FNDA:274,_ZNSt3__19allocatorI11GrammarRuleE9constructIS1_JRS1_EEEvPT_DpOT0_
FNDA:39,_ZNSt3__19allocatorINS_12basic_stringIcNS_11char_traitsIcEENS0_IcEEEEE9constructIS5_JRKS5_EEEvPT_DpOT0_
FNDA:296074,_ZNSt3__19allocatorIN11GrammarRule6SymbolEE7destroyEPS2_
FNDA:321,_ZNSt3__19allocatorI11GrammarRuleE7destroyEPS1_
FNDA:41,_ZNSt3__19allocatorINS_12basic_stringIcNS_11char_traitsIcEENS0_IcEEEEE7destroyEPS5_
FNDA:31,_ZNSt3__19allocatorINS_3setI9SituationNS_4lessIS2_EENS0_IS2_EEEEE7destroyEPS6_
FNDA:102,_ZNSt3__122__compressed_pair_elemINS_12basic_stringIcNS_11char_traitsIcEENS_9allocatorIcEEE5__repELi0ELb0EEC2Ev
FNDA:8,_ZNSt3__122__compressed_pair_elemIPNS_3setI9SituationNS_4lessIS2_EENS_9allocatorIS2_EEEELi0ELb0EEC2IDnvEEOT_
FNDA:63,_ZNSt3__122__compressed_pair_elemIP11GrammarRuleLi0ELb0EEC2IDnvEEOT_
FNDA:118046,_ZNSt3__122__compressed_pair_elemIPN11GrammarRule6SymbolELi0ELb0EEC2IDnvEEOT_
FNDA:8,_ZNSt3__122__compressed_pair_elemIPNS_12basic_stringIcNS_11char_traitsIcEENS_9allocatorIcEEEELi0ELb0EEC2IDnvEEOT_
FNDA:47,_ZNSt3__122__compressed_pair_elemIPNS_12basic_stringIcNS_11char_traitsIcEENS_9allocatorIcEEEELi0ELb0EEC2IS7_vEEOT_
FNDA:8,_ZNSt3__122__compressed_pair_elemINS_12basic_stringIcNS_11char_traitsIcEENS_9allocatorIcEEE5__repELi0ELb0EE5__getEv
FNDA:55,_ZNSt3__122__compressed_pair_elemIP11GrammarRuleLi0ELb0EE5__getEv
FNDA:113731,_ZNSt3__122__compressed_pair_elemIPN11GrammarRule6SymbolELi0ELb0EE5__getEv
FNDA:144,_ZNSt3__122__compressed_pair_elemIPNS_18basic_stringstreamIcNS_11char_traitsIcEENS_9allocatorIcEEEELi0ELb0EE5__getEv
FNDA:103,_ZNSt3__122__compressed_pair_elemIPNS_12basic_stringIcNS_11char_traitsIcEENS_9allocatorIcEEEELi0ELb0EE5__getEv
FNDA:173,_ZNKSt3__122__compressed_pair_elemIP11GrammarRuleLi0ELb0EE5__getEv
FNDA:341273,_ZNKSt3__122__compressed_pair_elemIPN11GrammarRule6SymbolELi0ELb0EE5__getEv
FNDA:28,_ZNKSt3__122__compressed_pair_elemIPNS_12basic_stringIcNS_11char_traitsIcEENS_9allocatorIcEEEELi0ELb0EE5__getEv
FNDA:268,_ZNKSt3__122__compressed_pair_elemINS_15__tree_end_nodeIPNS_16__tree_node_baseIPvEEEELi0ELb0EE5__getEv
FNDA:8,_ZNKSt3__122__compressed_pair_elemIPNS_3setI9SituationNS_4lessIS2_EENS_9allocatorIS2_EEEELi0ELb0EE5__getEv
FNDA:0,_ZNKSt3__122__compressed_pair_elemINS_12basic_stringIcNS_11char_traitsIcEENS_9allocatorIcEEE5__repELi0ELb0EE5__getEv
FNDA:102,_ZNSt3__122__compressed_pair_elemINS_9allocatorIcEELi1ELb1EEC2Ev
FNDA:8,_ZNSt3__122__compressed_pair_elemINS_9allocatorINS_3setI9SituationNS_4lessIS3_EENS1_IS3_EEEEEELi1ELb1EEC2Ev
FNDA:16,_ZNSt3__122__compressed_pair_elemINS_9allocatorI11GrammarRuleEELi1ELb1EEC2Ev
FNDA:8,_ZNSt3__122__compressed_pair_elemINS_9allocatorINS_12basic_stringIcNS_11char_traitsIcEENS1_IcEEEEEELi1ELb1EEC2Ev
FNDA:47,_ZNSt3__122__compressed_pair_elemINS_9allocatorI11GrammarRuleEELi1ELb1EEC2IS3_vEEOT_
FNDA:118046,_ZNSt3__122__compressed_pair_elemINS_9allocatorIN11GrammarRule6SymbolEEELi1ELb1EEC2IS4_vEEOT_
FNDA:494,_ZNSt3__122__compressed_pair_elemINS_9allocatorI11GrammarRuleEELi1ELb1EE5__getEv
FNDA:637347,_ZNSt3__122__compressed_pair_elemINS_9allocatorIN11GrammarRule6SymbolEEELi1ELb1EE5__getEv
FNDA:72,_ZNSt3__122__compressed_pair_elemINS_14default_deleteINS_18basic_stringstreamIcNS_11char_traitsIcEENS_9allocatorIcEEEEEELi1ELb1EE5__getEv
FNDA:0,_ZNSt3__122__compressed_pair_elemINS_14default_deleteINS_12basic_stringIcNS_11char_traitsIcEENS_9allocatorIcEEEEEELi1ELb1EE5__getEv
FNDA:68,_ZNSt3__122__compressed_pair_elemINS_9allocatorINS_12basic_stringIcNS_11char_traitsIcEENS1_IcEEEEEELi1ELb1EE5__getEv
FNDA:1985,_ZNSt3__122__compressed_pair_elemINS_9allocatorINS_11__tree_nodeI9SituationPvEEEELi1ELb1EE5__getEv
FNDA:39,_ZNSt3__122__compressed_pair_elemINS_9allocatorINS_3setI9SituationNS_4lessIS3_EENS1_IS3_EEEEEELi1ELb1EE5__getEv
FNDA:144,_ZNKSt3__122__compressed_pair_elemINS_9allocatorI11GrammarRuleEELi1ELb1EE5__getEv
FNDA:231980,_ZNKSt3__122__compressed_pair_elemINS_9allocatorIN11GrammarRule6SymbolEEELi1ELb1EE5__getEv
FNDA:10,_ZNKSt3__122__compressed_pair_elemINS_9allocatorINS_12basic_stringIcNS_11char_traitsIcEENS1_IcEEEEEELi1ELb1EE5__getEv
FNDA:102,_ZNSt3__117__compressed_pairINS_12basic_stringIcNS_11char_traitsIcEENS_9allocatorIcEEE5__repES5_EC1ILb1EvEEv
FNDA:102,_ZNSt3__117__compressed_pairINS_12basic_stringIcNS_11char_traitsIcEENS_9allocatorIcEEE5__repES5_EC2ILb1EvEEv
FNDA:8,_ZNSt3__117__compressed_pairIPNS_3setI9SituationNS_4lessIS2_EENS_9allocatorIS2_EEEENS5_IS7_EEEC1IDnLb1EEEOT_
FNDA:8,_ZNSt3__117__compressed_pairIPNS_3setI9SituationNS_4lessIS2_EENS_9allocatorIS2_EEEENS5_IS7_EEEC2IDnLb1EEEOT_
FNDA:16,_ZNSt3__117__compressed_pairIP11GrammarRuleNS_9allocatorIS1_EEEC1IDnLb1EEEOT_
FNDA:16,_ZNSt3__117__compressed_pairIP11GrammarRuleNS_9allocatorIS1_EEEC2IDnLb1EEEOT_
FNDA:8,_ZNSt3__117__compressed_pairIPNS_12basic_stringIcNS_11char_traitsIcEENS_9allocatorIcEEEENS4_IS6_EEEC1IDnLb1EEEOT_
FNDA:8,_ZNSt3__117__compressed_pairIPNS_12basic_stringIcNS_11char_traitsIcEENS_9allocatorIcEEEENS4_IS6_EEEC2IDnLb1EEEOT_
FNDA:47,_ZNSt3__117__compressed_pairIPNS_12basic_stringIcNS_11char_traitsIcEENS_9allocatorIcEEEENS_14default_deleteIS6_EEEC1IS7_Lb1EEEOT_
FNDA:47,_ZNSt3__117__compressed_pairIPNS_12basic_stringIcNS_11char_traitsIcEENS_9allocatorIcEEEENS_14default_deleteIS6_EEEC2IS7_Lb1EEEOT_
FNDA:47,_ZNSt3__117__compressed_pairIP11GrammarRuleNS_9allocatorIS1_EEEC1IDnS4_EEOT_OT0_
FNDA:47,_ZNSt3__117__compressed_pairIP11GrammarRuleNS_9allocatorIS1_EEEC2IDnS4_EEOT_OT0_
FNDA:118046,_ZNSt3__117__compressed_pairIPN11GrammarRule6SymbolENS_9allocatorIS2_EEEC1IDnS5_EEOT_OT0_
FNDA:118046,_ZNSt3__117__compressed_pairIPN11GrammarRule6SymbolENS_9allocatorIS2_EEEC2IDnS5_EEOT_OT0_
FNDA:8,_ZNSt3__117__compressed_pairINS_12basic_stringIcNS_11char_traitsIcEENS_9allocatorIcEEE5__repES5_E5firstEv
FNDA:55,_ZNSt3__117__compressed_pairIP11GrammarRuleNS_9allocatorIS1_EEE5firstEv
FNDA:113731,_ZNSt3__117__compressed_pairIPN11GrammarRule6SymbolENS_9allocatorIS2_EEE5firstEv
FNDA:144,_ZNSt3__117__compressed_pairIPNS_18basic_stringstreamIcNS_11char_traitsIcEENS_9allocatorIcEEEENS_14default_deleteIS6_EEE5firstEv
FNDA:94,_ZNSt3__117__compressed_pairIPNS_12basic_stringIcNS_11char_traitsIcEENS_9allocatorIcEEEENS_14default_deleteIS6_EEE5firstEv
FNDA:9,_ZNSt3__117__compressed_pairIPNS_12basic_stringIcNS_11char_traitsIcEENS_9allocatorIcEEEENS4_IS6_EEE5firstEv
FNDA:173,_ZNKSt3__117__compressed_pairIP11GrammarRuleNS_9allocatorIS1_EEE5firstEv
FNDA:341273,_ZNKSt3__117__compressed_pairIPN11GrammarRule6SymbolENS_9allocatorIS2_EEE5firstEv
FNDA:28,_ZNKSt3__117__compressed_pairIPNS_12basic_stringIcNS_11char_traitsIcEENS_9allocatorIcEEEENS4_IS6_EEE5firstEv
FNDA:268,_ZNKSt3__117__compressed_pairINS_15__tree_end_nodeIPNS_16__tree_node_baseIPvEEEENS_9allocatorINS_11__tree_nodeI9SituationS3_EEEEE5firstEv
FNDA:8,_ZNKSt3__117__compressed_pairIPNS_3setI9SituationNS_4lessIS2_EENS_9allocatorIS2_EEEENS5_IS7_EEE5firstEv
FNDA:0,_ZNKSt3__117__compressed_pairINS_12basic_stringIcNS_11char_traitsIcEENS_9allocatorIcEEE5__repES5_E5firstEv
FNDA:494,_ZNSt3__117__compressed_pairIP11GrammarRuleNS_9allocatorIS1_EEE6secondEv
FNDA:637347,_ZNSt3__117__compressed_pairIPN11GrammarRule6SymbolENS_9allocatorIS2_EEE6secondEv
FNDA:72,_ZNSt3__117__compressed_pairIPNS_18basic_stringstreamIcNS_11char_traitsIcEENS_9allocatorIcEEEENS_14default_deleteIS6_EEE6secondEv
FNDA:0,_ZNSt3__117__compressed_pairIPNS_12basic_stringIcNS_11char_traitsIcEENS_9allocatorIcEEEENS_14default_deleteIS6_EEE6secondEv
FNDA:68,_ZNSt3__117__compressed_pairIPNS_12basic_stringIcNS_11char_traitsIcEENS_9allocatorIcEEEENS4_IS6_EEE6secondEv
FNDA:1985,_ZNSt3__117__compressed_pairINS_15__tree_end_nodeIPNS_16__tree_node_baseIPvEEEENS_9allocatorINS_11__tree_nodeI9SituationS3_EEEEE6secondEv
FNDA:39,_ZNSt3__117__compressed_pairIPNS_3setI9SituationNS_4lessIS2_EENS_9allocatorIS2_EEEENS5_IS7_EEE6secondEv
FNDA:144,_ZNKSt3__117__compressed_pairIP11GrammarRuleNS_9allocatorIS1_EEE6secondEv
FNDA:231980,_ZNKSt3__117__compressed_pairIPN11GrammarRule6SymbolENS_9allocatorIS2_EEE6secondEv
FNDA:10,_ZNKSt3__117__compressed_pairIPNS_12basic_stringIcNS_11char_traitsIcEENS_9allocatorIcEEEENS4_IS6_EEE6secondEv
FNDA:72,_ZNKSt3__114default_deleteINS_18basic_stringstreamIcNS_11char_traitsIcEENS_9allocatorIcEEEEEclEPS6_
FNDA:0,_ZNKSt3__114default_deleteINS_12basic_stringIcNS_11char_traitsIcEENS_9allocatorIcEEEEEclEPS6_
FNDA:47,_ZNSt3__110unique_ptrINS_12basic_stringIcNS_11char_traitsIcEENS_9allocatorIcEEEENS_14default_deleteIS6_EEEC1ILb1EvEEv
FNDA:47,_ZNSt3__110unique_ptrINS_12basic_stringIcNS_11char_traitsIcEENS_9allocatorIcEEEENS_14default_deleteIS6_EEEC2ILb1EvEEv
FNDA:72,_ZNSt3__110unique_ptrINS_18basic_stringstreamIcNS_11char_traitsIcEENS_9allocatorIcEEEENS_14default_deleteIS6_EEED1Ev
FNDA:72,_ZNSt3__110unique_ptrINS_18basic_stringstreamIcNS_11char_traitsIcEENS_9allocatorIcEEEENS_14default_deleteIS6_EEED2Ev
FNDA:47,_ZNSt3__110unique_ptrINS_12basic_stringIcNS_11char_traitsIcEENS_9allocatorIcEEEENS_14default_deleteIS6_EEED1Ev
FNDA:47,_ZNSt3__110unique_ptrINS_12basic_stringIcNS_11char_traitsIcEENS_9allocatorIcEEEENS_14default_deleteIS6_EEED2Ev
FNDA:72,_ZNSt3__110unique_ptrINS_18basic_stringstreamIcNS_11char_traitsIcEENS_9allocatorIcEEEENS_14default_deleteIS6_EEE5resetEPS6_
FNDA:47,_ZNSt3__110unique_ptrINS_12basic_stringIcNS_11char_traitsIcEENS_9allocatorIcEEEENS_14default_deleteIS6_EEE5resetEPS6_
FNF:144
FNH:135
DA:989,268
DA:1107,751960
DA:1546,113795
DA:1554,115877
DA:1560,626
DA:1561,626
DA:1595,298452
DA:1599,114041
DA:1604,118093
DA:1605,118093
DA:1606,118093
DA:1644,752
DA:1645,313
DA:1646,63
DA:1663,113731
DA:1664,113731
DA:1666,113731
DA:1667,113731
DA:1668,113731
DA:1669,113731
DA:1717,313
DA:1742,296467
DA:1747,1985
DA:1748,1985
DA:1752,114041
DA:1764,118093
DA:1797,134
DA:1810,113795
DA:1811,0
DA:1813,113795
DA:1816,231754
DA:1818,227836
DA:1825,313
DA:1826,313
DA:1880,296467
DA:2139,102
DA:2147,118172
DA:2160,114041
DA:2162,341750
DA:2176,134
DA:2184,118093
DA:2198,640005
DA:2200,232134
DA:2230,204
DA:2237,158
DA:2247,236186
DA:2276,114041
DA:2281,341750
DA:2286,640005
DA:2291,232134
DA:2335,144
DA:2336,72
DA:2457,141
DA:2602,238
DA:2645,119
DA:2646,119
DA:2647,119
DA:2648,72
DA:2649,119
LF:59
LH:58
end_of_record
SF:/Library/Developer/CommandLineTools/usr/include/c++/v1/new
FN:228,_ZNSt3__1L24__is_overaligned_for_newEm
FN:236,_ZNSt3__1L17__libcpp_allocateEmm
FN:256,_ZNSt3__1L19__libcpp_deallocateEPvm
FNDA:229672,_ZNSt3__1L24__is_overaligned_for_newEm
FNDA:113795,_ZNSt3__1L17__libcpp_allocateEmm
FNDA:115877,_ZNSt3__1L19__libcpp_deallocateEPvm
FNF:3
FNH:3
DA:230,229672
DA:238,113795
DA:239,0
DA:243,0
DA:252,113795
DA:254,113795
DA:258,115877
DA:259,0
DA:263,0
DA:272,115877
DA:274,115877
LF:11
LH:7
end_of_record
SF:/Library/Developer/CommandLineTools/usr/include/c++/v1/ostream
FN:254,_ZNKSt3__113basic_ostreamIcNS_11char_traitsIcEEE6sentrycvbEv
FN:714,_ZNSt3__124__put_character_sequenceIcNS_11char_traitsIcEEEERNS_13basic_ostreamIT_T0_EES7_PKS4_m
FN:862,_ZNSt3__1lsINS_11char_traitsIcEEEERNS_13basic_ostreamIcT_EES6_PKc
FNDA:383,_ZNKSt3__113basic_ostreamIcNS_11char_traitsIcEEE6sentrycvbEv
FNDA:383,_ZNSt3__124__put_character_sequenceIcNS_11char_traitsIcEEEERNS_13basic_ostreamIT_T0_EES7_PKS4_m
FNDA:37,_ZNSt3__1lsINS_11char_traitsIcEEEERNS_13basic_ostreamIcT_EES6_PKc
FNF:3
FNH:3
DA:254,383
DA:721,383
DA:722,766
DA:725,1532
DA:726,383
DA:727,1532
DA:728,0
DA:729,383
DA:730,383
DA:731,383
DA:732,766
DA:733,0
DA:734,383
DA:736,383
DA:739,0
DA:740,0
DA:742,383
DA:743,0
DA:864,37
LF:19
LH:14
end_of_record
SF:/Library/Developer/CommandLineTools/usr/include/c++/v1/stdexcept
FN:136,_ZNSt12length_errorC1EPKc
FN:136,_ZNSt12length_errorC2EPKc
FN:222,_ZNSt3__1L20__throw_length_errorEPKc
FNDA:0,_ZNSt12length_errorC1EPKc
FNDA:0,_ZNSt12length_errorC2EPKc
FNDA:0,_ZNSt3__1L20__throw_length_errorEPKc
FNF:3
FNH:0
DA:136,0
DA:225,0
DA:230,0
LF:3
LH:0
end_of_record
SF:/Library/Developer/CommandLineTools/usr/include/c++/v1/streambuf
FN:229,_ZNSt3__115basic_streambufIcNS_11char_traitsIcEEE5sputnEPKcl
FNDA:383,_ZNSt3__115basic_streambufIcNS_11char_traitsIcEEE5sputnEPKcl
FNF:1
FNH:1
DA:230,383
LF:1
LH:1
end_of_record
SF:/Library/Developer/CommandLineTools/usr/include/c++/v1/string
FN:811,_ZNSt3__112basic_stringIcNS_11char_traitsIcEENS_9allocatorIcEEEC1IDnEEPKc
FN:811,_ZNSt3__112basic_stringIcNS_11char_traitsIcEENS_9allocatorIcEEEC2IDnEEPKc
FN:1226,_ZNKSt3__112basic_stringIcNS_11char_traitsIcEENS_9allocatorIcEEE5c_strEv
FN:1228,_ZNKSt3__112basic_stringIcNS_11char_traitsIcEENS_9allocatorIcEEE4dataEv
FN:1231,_ZNSt3__112basic_stringIcNS_11char_traitsIcEENS_9allocatorIcEEE4dataEv
FN:1405,_ZNKSt3__112basic_stringIcNS_11char_traitsIcEENS_9allocatorIcEEE9__is_longEv
FN:1484,_ZNSt3__112basic_stringIcNS_11char_traitsIcEENS_9allocatorIcEEE18__get_long_pointerEv
FN:1487,_ZNKSt3__112basic_stringIcNS_11char_traitsIcEENS_9allocatorIcEEE18__get_long_pointerEv
FN:1490,_ZNSt3__112basic_stringIcNS_11char_traitsIcEENS_9allocatorIcEEE19__get_short_pointerEv
FN:1493,_ZNKSt3__112basic_stringIcNS_11char_traitsIcEENS_9allocatorIcEEE19__get_short_pointerEv
FN:1496,_ZNSt3__112basic_stringIcNS_11char_traitsIcEENS_9allocatorIcEEE13__get_pointerEv
FN:1499,_ZNKSt3__112basic_stringIcNS_11char_traitsIcEENS_9allocatorIcEEE13__get_pointerEv
FN:1503,_ZNSt3__112basic_stringIcNS_11char_traitsIcEENS_9allocatorIcEEE6__zeroEv
FN:1708,_ZNSt3__112basic_stringIcNS_11char_traitsIcEENS_9allocatorIcEEEC2Ev
FN:1708,_ZNSt3__112basic_stringIcNS_11char_traitsIcEENS_9allocatorIcEEEC1Ev
FN:1911,_ZNSt3__112basic_stringIcNS_11char_traitsIcEENS_9allocatorIcEEEC2Emc
FN:1911,_ZNSt3__112basic_stringIcNS_11char_traitsIcEENS_9allocatorIcEEEC1Emc
FNDA:94,_ZNSt3__112basic_stringIcNS_11char_traitsIcEENS_9allocatorIcEEEC1IDnEEPKc
FNDA:94,_ZNSt3__112basic_stringIcNS_11char_traitsIcEENS_9allocatorIcEEEC2IDnEEPKc
FNDA:0,_ZNKSt3__112basic_stringIcNS_11char_traitsIcEENS_9allocatorIcEEE5c_strEv
FNDA:0,_ZNKSt3__112basic_stringIcNS_11char_traitsIcEENS_9allocatorIcEEE4dataEv
FNDA:0,_ZNSt3__112basic_stringIcNS_11char_traitsIcEENS_9allocatorIcEEE4dataEv
FNDA:0,_ZNKSt3__112basic_stringIcNS_11char_traitsIcEENS_9allocatorIcEEE9__is_longEv
FNDA:0,_ZNSt3__112basic_stringIcNS_11char_traitsIcEENS_9allocatorIcEEE18__get_long_pointerEv
FNDA:0,_ZNKSt3__112basic_stringIcNS_11char_traitsIcEENS_9allocatorIcEEE18__get_long_pointerEv
FNDA:0,_ZNSt3__112basic_stringIcNS_11char_traitsIcEENS_9allocatorIcEEE19__get_short_pointerEv
FNDA:0,_ZNKSt3__112basic_stringIcNS_11char_traitsIcEENS_9allocatorIcEEE19__get_short_pointerEv
FNDA:0,_ZNSt3__112basic_stringIcNS_11char_traitsIcEENS_9allocatorIcEEE13__get_pointerEv
FNDA:0,_ZNKSt3__112basic_stringIcNS_11char_traitsIcEENS_9allocatorIcEEE13__get_pointerEv
FNDA:8,_ZNSt3__112basic_stringIcNS_11char_traitsIcEENS_9allocatorIcEEE6__zeroEv
FNDA:8,_ZNSt3__112basic_stringIcNS_11char_traitsIcEENS_9allocatorIcEEEC1Ev
FNDA:8,_ZNSt3__112basic_stringIcNS_11char_traitsIcEENS_9allocatorIcEEEC2Ev
FNDA:0,_ZNSt3__112basic_stringIcNS_11char_traitsIcEENS_9allocatorIcEEEC1Emc
FNDA:0,_ZNSt3__112basic_stringIcNS_11char_traitsIcEENS_9allocatorIcEEEC2Emc
FNF:17
FNH:5
DA:783,8
DA:811,188
DA:813,94
DA:817,188
DA:828,0
DA:1226,0
DA:1228,0
DA:1231,0
DA:1406,0
DA:1485,0
DA:1488,0
DA:1491,0
DA:1494,0
DA:1497,0
DA:1500,0
DA:1505,8
DA:1506,64
DA:1507,24
DA:1508,8
DA:1710,16
DA:1714,8
DA:1715,16
DA:1912,0
DA:1913,0
DA:1917,0
LF:25
LH:11
end_of_record
SF:/Library/Developer/CommandLineTools/usr/include/c++/v1/type_traits
FN:449,_ZNSt3__1L9addressofIKcEEPT_RS2_
FN:449,_ZNSt3__1L9addressofINS_15__tree_end_nodeIPNS_16__tree_node_baseIPvEEEEEEPT_RS7_
FN:449,_ZNSt3__1L9addressofIcEEPT_RS1_
FN:449,_ZNSt3__1L9addressofI9SituationEEPT_RS2_
FN:2288,_ZNSt3__1L4moveIRNS_9allocatorIN11GrammarRule6SymbolEEEEEONS_16remove_referenceIT_E4typeEOS7_
FN:2288,_ZNSt3__1L4moveIRNS_9allocatorI11GrammarRuleEEEEONS_16remove_referenceIT_E4typeEOS6_
FN:2297,_ZNSt3__1L7forwardIR11GrammarRuleEEOT_RNS_16remove_referenceIS3_E4typeE
FN:2297,_ZNSt3__1L7forwardIPNS_12basic_stringIcNS_11char_traitsIcEENS_9allocatorIcEEEEEEOT_RNS_16remove_referenceIS8_E4typeE
FN:2297,_ZNSt3__1L7forwardIDnEEOT_RNS_16remove_referenceIS1_E4typeE
FN:2297,_ZNSt3__1L7forwardINS_9allocatorI11GrammarRuleEEEEOT_RNS_16remove_referenceIS4_E4typeE
FN:2297,_ZNSt3__1L7forwardINS_9allocatorIN11GrammarRule6SymbolEEEEEOT_RNS_16remove_referenceIS5_E4typeE
FN:2297,_ZNSt3__1L7forwardIRKNS_12basic_stringIcNS_11char_traitsIcEENS_9allocatorIcEEEEEEOT_RNS_16remove_referenceIS9_E4typeE
FNDA:1985,_ZNSt3__1L9addressofI9SituationEEPT_RS2_
FNDA:268,_ZNSt3__1L9addressofINS_15__tree_end_nodeIPNS_16__tree_node_baseIPvEEEEEEPT_RS7_
FNDA:0,_ZNSt3__1L9addressofIKcEEPT_RS2_
FNDA:0,_ZNSt3__1L9addressofIcEEPT_RS1_
FNDA:47,_ZNSt3__1L4moveIRNS_9allocatorI11GrammarRuleEEEEONS_16remove_referenceIT_E4typeEOS6_
FNDA:118046,_ZNSt3__1L4moveIRNS_9allocatorIN11GrammarRule6SymbolEEEEEONS_16remove_referenceIT_E4typeEOS7_
FNDA:236250,_ZNSt3__1L7forwardIDnEEOT_RNS_16remove_referenceIS1_E4typeE
FNDA:94,_ZNSt3__1L7forwardINS_9allocatorI11GrammarRuleEEEEOT_RNS_16remove_referenceIS4_E4typeE
FNDA:822,_ZNSt3__1L7forwardIR11GrammarRuleEEOT_RNS_16remove_referenceIS3_E4typeE
FNDA:236092,_ZNSt3__1L7forwardINS_9allocatorIN11GrammarRule6SymbolEEEEEOT_RNS_16remove_referenceIS5_E4typeE
FNDA:117,_ZNSt3__1L7forwardIRKNS_12basic_stringIcNS_11char_traitsIcEENS_9allocatorIcEEEEEEOT_RNS_16remove_referenceIS9_E4typeE
FNDA:94,_ZNSt3__1L7forwardIPNS_12basic_stringIcNS_11char_traitsIcEENS_9allocatorIcEEEEEEOT_RNS_16remove_referenceIS8_E4typeE
FNF:12
FNH:10
DA:451,2253
DA:2291,118093
DA:2299,473469
LF:3
LH:3
end_of_record
SF:/Library/Developer/CommandLineTools/usr/include/c++/v1/vector
FN:298,_ZNSt3__120__vector_base_commonILb1EEC2Ev
FN:342,_ZNSt3__113__vector_baseINS_3setI9SituationNS_4lessIS2_EENS_9allocatorIS2_EEEENS5_IS7_EEE7__allocEv
FN:342,_ZNSt3__113__vector_baseINS_12basic_stringIcNS_11char_traitsIcEENS_9allocatorIcEEEENS4_IS6_EEE7__allocEv
FN:342,_ZNSt3__113__vector_baseI11GrammarRuleNS_9allocatorIS1_EEE7__allocEv
FN:342,_ZNSt3__113__vector_baseIN11GrammarRule6SymbolENS_9allocatorIS2_EEE7__allocEv
FN:345,_ZNKSt3__113__vector_baseIN11GrammarRule6SymbolENS_9allocatorIS2_EEE7__allocEv
FN:345,_ZNKSt3__113__vector_baseINS_12basic_stringIcNS_11char_traitsIcEENS_9allocatorIcEEEENS4_IS6_EEE7__allocEv
FN:345,_ZNKSt3__113__vector_baseI11GrammarRuleNS_9allocatorIS1_EEE7__allocEv
FN:348,_ZNSt3__113__vector_baseINS_12basic_stringIcNS_11char_traitsIcEENS_9allocatorIcEEEENS4_IS6_EEE9__end_capEv
FN:348,_ZNSt3__113__vector_baseI11GrammarRuleNS_9allocatorIS1_EEE9__end_capEv
FN:348,_ZNSt3__113__vector_baseIN11GrammarRule6SymbolENS_9allocatorIS2_EEE9__end_capEv
FN:351,_ZNKSt3__113__vector_baseIN11GrammarRule6SymbolENS_9allocatorIS2_EEE9__end_capEv
FN:351,_ZNKSt3__113__vector_baseINS_3setI9SituationNS_4lessIS2_EENS_9allocatorIS2_EEEENS5_IS7_EEE9__end_capEv
FN:351,_ZNKSt3__113__vector_baseINS_12basic_stringIcNS_11char_traitsIcEENS_9allocatorIcEEEENS4_IS6_EEE9__end_capEv
FN:351,_ZNKSt3__113__vector_baseI11GrammarRuleNS_9allocatorIS1_EEE9__end_capEv
FN:364,_ZNSt3__113__vector_baseI11GrammarRuleNS_9allocatorIS1_EEE5clearEv
FN:364,_ZNSt3__113__vector_baseINS_12basic_stringIcNS_11char_traitsIcEENS_9allocatorIcEEEENS4_IS6_EEE5clearEv
FN:364,_ZNSt3__113__vector_baseINS_3setI9SituationNS_4lessIS2_EENS_9allocatorIS2_EEEENS5_IS7_EEE5clearEv
FN:364,_ZNSt3__113__vector_baseIN11GrammarRule6SymbolENS_9allocatorIS2_EEE5clearEv
FN:366,_ZNKSt3__113__vector_baseINS_3setI9SituationNS_4lessIS2_EENS_9allocatorIS2_EEEENS5_IS7_EEE8capacityEv
FN:366,_ZNKSt3__113__vector_baseI11GrammarRuleNS_9allocatorIS1_EEE8capacityEv
FN:366,_ZNKSt3__113__vector_baseIN11GrammarRule6SymbolENS_9allocatorIS2_EEE8capacityEv
FN:366,_ZNKSt3__113__vector_baseINS_12basic_stringIcNS_11char_traitsIcEENS_9allocatorIcEEEENS4_IS6_EEE8capacityEv
FN:417,_ZNSt3__113__vector_baseINS_12basic_stringIcNS_11char_traitsIcEENS_9allocatorIcEEEENS4_IS6_EEE17__destruct_at_endEPS6_
FN:417,_ZNSt3__113__vector_baseI11GrammarRuleNS_9allocatorIS1_EEE17__destruct_at_endEPS1_
FN:417,_ZNSt3__113__vector_baseIN11GrammarRule6SymbolENS_9allocatorIS2_EEE17__destruct_at_endEPS2_
FN:417,_ZNSt3__113__vector_baseINS_3setI9SituationNS_4lessIS2_EENS_9allocatorIS2_EEEENS5_IS7_EEE17__destruct_at_endEPS7_
FN:427,_ZNSt3__113__vector_baseINS_3setI9SituationNS_4lessIS2_EENS_9allocatorIS2_EEEENS5_IS7_EEEC2Ev
FN:427,_ZNSt3__113__vector_baseINS_12basic_stringIcNS_11char_traitsIcEENS_9allocatorIcEEEENS4_IS6_EEEC2Ev
FN:427,_ZNSt3__113__vector_baseI11GrammarRuleNS_9allocatorIS1_EEEC2Ev
FN:447,_ZNSt3__113__vector_baseI11GrammarRuleNS_9allocatorIS1_EEEC2EOS3_
FN:447,_ZNSt3__113__vector_baseIN11GrammarRule6SymbolENS_9allocatorIS2_EEEC2EOS4_
FN:454,_ZNSt3__113__vector_baseI11GrammarRuleNS_9allocatorIS1_EEED2Ev
FN:454,_ZNSt3__113__vector_baseIN11GrammarRule6SymbolENS_9allocatorIS2_EEED2Ev
FN:454,_ZNSt3__113__vector_baseINS_12basic_stringIcNS_11char_traitsIcEENS_9allocatorIcEEEENS4_IS6_EEED2Ev
FN:454,_ZNSt3__113__vector_baseINS_3setI9SituationNS_4lessIS2_EENS_9allocatorIS2_EEEENS5_IS7_EEED2Ev
FN:464,_ZNSt3__16vectorINS_12basic_stringIcNS_11char_traitsIcEENS_9allocatorIcEEEENS4_IS6_EEED1Ev
FN:464,_ZNSt3__16vectorINS_12basic_stringIcNS_11char_traitsIcEENS_9allocatorIcEEEENS4_IS6_EEED2Ev
FN:490,_ZNSt3__16vectorINS_3setI9SituationNS_4lessIS2_EENS_9allocatorIS2_EEEENS5_IS7_EEEC1Ev
FN:490,_ZNSt3__16vectorINS_3setI9SituationNS_4lessIS2_EENS_9allocatorIS2_EEEENS5_IS7_EEEC2Ev
FN:490,_ZNSt3__16vectorI11GrammarRuleNS_9allocatorIS1_EEEC2Ev
FN:490,_ZNSt3__16vectorI11GrammarRuleNS_9allocatorIS1_EEEC1Ev
FN:649,_ZNKSt3__16vectorIN11GrammarRule6SymbolENS_9allocatorIS2_EEE4sizeEv
FN:649,_ZNKSt3__16vectorI11GrammarRuleNS_9allocatorIS1_EEE4sizeEv
FN:652,_ZNKSt3__16vectorINS_12basic_stringIcNS_11char_traitsIcEENS_9allocatorIcEEEENS4_IS6_EEE8capacityEv
FN:652,_ZNKSt3__16vectorI11GrammarRuleNS_9allocatorIS1_EEE8capacityEv
FN:652,_ZNKSt3__16vectorIN11GrammarRule6SymbolENS_9allocatorIS2_EEE8capacityEv
FN:691,_ZNKSt3__16vectorI11GrammarRuleNS_9allocatorIS1_EEE4dataEv
FN:691,_ZNKSt3__16vectorINS_12basic_stringIcNS_11char_traitsIcEENS_9allocatorIcEEEENS4_IS6_EEE4dataEv
FN:691,_ZNKSt3__16vectorIN11GrammarRule6SymbolENS_9allocatorIS2_EEE4dataEv
FN:855,_ZNKSt3__16vectorINS_12basic_stringIcNS_11char_traitsIcEENS_9allocatorIcEEEENS4_IS6_EEE31__annotate_contiguous_containerEPKvSA_SA_SA_
FN:855,_ZNKSt3__16vectorI11GrammarRuleNS_9allocatorIS1_EEE31__annotate_contiguous_containerEPKvS6_S6_S6_
FN:855,_ZNKSt3__16vectorIN11GrammarRule6SymbolENS_9allocatorIS2_EEE31__annotate_contiguous_containerEPKvS7_S7_S7_
FN:859,_ZNKSt3__16vectorIN11GrammarRule6SymbolENS_9allocatorIS2_EEE14__annotate_newEm
FN:859,_ZNKSt3__16vectorINS_12basic_stringIcNS_11char_traitsIcEENS_9allocatorIcEEEENS4_IS6_EEE14__annotate_newEm
FN:859,_ZNKSt3__16vectorI11GrammarRuleNS_9allocatorIS1_EEE14__annotate_newEm
FN:903,_ZNSt3__16vectorIN11GrammarRule6SymbolENS_9allocatorIS2_EEE24__RAII_IncreaseAnnotatorC2ERKS5_m
FN:903,_ZNSt3__16vectorINS_12basic_stringIcNS_11char_traitsIcEENS_9allocatorIcEEEENS4_IS6_EEE24__RAII_IncreaseAnnotatorC2ERKS8_m
FN:903,_ZNSt3__16vectorI11GrammarRuleNS_9allocatorIS1_EEE24__RAII_IncreaseAnnotatorC1ERKS4_m
FN:903,_ZNSt3__16vectorIN11GrammarRule6SymbolENS_9allocatorIS2_EEE24__RAII_IncreaseAnnotatorC1ERKS5_m
FN:903,_ZNSt3__16vectorI11GrammarRuleNS_9allocatorIS1_EEE24__RAII_IncreaseAnnotatorC2ERKS4_m
FN:903,_ZNSt3__16vectorINS_12basic_stringIcNS_11char_traitsIcEENS_9allocatorIcEEEENS4_IS6_EEE24__RAII_IncreaseAnnotatorC1ERKS8_m
FN:904,_ZNSt3__16vectorIN11GrammarRule6SymbolENS_9allocatorIS2_EEE24__RAII_IncreaseAnnotator6__doneEv
FN:904,_ZNSt3__16vectorINS_12basic_stringIcNS_11char_traitsIcEENS_9allocatorIcEEEENS4_IS6_EEE24__RAII_IncreaseAnnotator6__doneEv
FN:904,_ZNSt3__16vectorI11GrammarRuleNS_9allocatorIS1_EEE24__RAII_IncreaseAnnotator6__doneEv
FN:966,_ZNSt3__16vectorIN11GrammarRule6SymbolENS_9allocatorIS2_EEE11__vallocateEm
FN:966,_ZNSt3__16vectorINS_12basic_stringIcNS_11char_traitsIcEENS_9allocatorIcEEEENS4_IS6_EEE11__vallocateEm
FN:966,_ZNSt3__16vectorI11GrammarRuleNS_9allocatorIS1_EEE11__vallocateEm
FN:989,_ZNKSt3__16vectorIN11GrammarRule6SymbolENS_9allocatorIS2_EEE8max_sizeEv
FN:989,_ZNKSt3__16vectorINS_12basic_stringIcNS_11char_traitsIcEENS_9allocatorIcEEEENS4_IS6_EEE8max_sizeEv
FN:989,_ZNKSt3__16vectorI11GrammarRuleNS_9allocatorIS1_EEE8max_sizeEv
FN:1059,_ZNSt3__16vectorIN11GrammarRule6SymbolENS_9allocatorIS2_EEE18__construct_at_endIPS2_EENS_9enable_ifIXsr21__is_forward_iteratorIT_EE5valueEvE4typeES9_S9_m
FN:1059,_ZNSt3__16vectorINS_12basic_stringIcNS_11char_traitsIcEENS_9allocatorIcEEEENS4_IS6_EEE18__construct_at_endIPKS6_EENS_9enable_ifIXsr21__is_forward_iteratorIT_EE5valueEvE4typeESD_SD_m
FN:1059,_ZNSt3__16vectorI11GrammarRuleNS_9allocatorIS1_EEE18__construct_at_endIPS1_EENS_9enable_ifIXsr21__is_forward_iteratorIT_EE5valueEvE4typeES8_S8_m
FN:1236,_ZNSt3__16vectorIN11GrammarRule6SymbolENS_9allocatorIS2_EEEC2ERKS5_
FN:1236,_ZNSt3__16vectorI11GrammarRuleNS_9allocatorIS1_EEEC1ERKS4_
FN:1236,_ZNSt3__16vectorIN11GrammarRule6SymbolENS_9allocatorIS2_EEEC1ERKS5_
FN:1236,_ZNSt3__16vectorI11GrammarRuleNS_9allocatorIS1_EEEC2ERKS4_
FN:1314,_ZNSt3__16vectorINS_12basic_stringIcNS_11char_traitsIcEENS_9allocatorIcEEEENS4_IS6_EEEC1ESt16initializer_listIS6_E
FN:1314,_ZNSt3__16vectorINS_12basic_stringIcNS_11char_traitsIcEENS_9allocatorIcEEEENS4_IS6_EEEC2ESt16initializer_listIS6_E
FN:1478,_ZNSt3__16vectorINS_12basic_stringIcNS_11char_traitsIcEENS_9allocatorIcEEEENS4_IS6_EEE11__make_iterEPS6_
FN:1502,_ZNSt3__16vectorINS_12basic_stringIcNS_11char_traitsIcEENS_9allocatorIcEEEENS4_IS6_EEE5beginEv
FN:1518,_ZNSt3__16vectorINS_12basic_stringIcNS_11char_traitsIcEENS_9allocatorIcEEEENS4_IS6_EEE3endEv
FNDA:118125,_ZNSt3__120__vector_base_commonILb1EEC2Ev
FNDA:494,_ZNSt3__113__vector_baseI11GrammarRuleNS_9allocatorIS1_EEE7__allocEv
FNDA:637347,_ZNSt3__113__vector_baseIN11GrammarRule6SymbolENS_9allocatorIS2_EEE7__allocEv
FNDA:68,_ZNSt3__113__vector_baseINS_12basic_stringIcNS_11char_traitsIcEENS_9allocatorIcEEEENS4_IS6_EEE7__allocEv
FNDA:39,_ZNSt3__113__vector_baseINS_3setI9SituationNS_4lessIS2_EENS_9allocatorIS2_EEEENS5_IS7_EEE7__allocEv
FNDA:144,_ZNKSt3__113__vector_baseI11GrammarRuleNS_9allocatorIS1_EEE7__allocEv
FNDA:231980,_ZNKSt3__113__vector_baseIN11GrammarRule6SymbolENS_9allocatorIS2_EEE7__allocEv
FNDA:10,_ZNKSt3__113__vector_baseINS_12basic_stringIcNS_11char_traitsIcEENS_9allocatorIcEEEENS4_IS6_EEE7__allocEv
FNDA:55,_ZNSt3__113__vector_baseI11GrammarRuleNS_9allocatorIS1_EEE9__end_capEv
FNDA:113731,_ZNSt3__113__vector_baseIN11GrammarRule6SymbolENS_9allocatorIS2_EEE9__end_capEv
FNDA:9,_ZNSt3__113__vector_baseINS_12basic_stringIcNS_11char_traitsIcEENS_9allocatorIcEEEENS4_IS6_EEE9__end_capEv
FNDA:173,_ZNKSt3__113__vector_baseI11GrammarRuleNS_9allocatorIS1_EEE9__end_capEv
FNDA:341273,_ZNKSt3__113__vector_baseIN11GrammarRule6SymbolENS_9allocatorIS2_EEE9__end_capEv
FNDA:28,_ZNKSt3__113__vector_baseINS_12basic_stringIcNS_11char_traitsIcEENS_9allocatorIcEEEENS4_IS6_EEE9__end_capEv
FNDA:8,_ZNKSt3__113__vector_baseINS_3setI9SituationNS_4lessIS2_EENS_9allocatorIS2_EEEENS5_IS7_EEE9__end_capEv
FNDA:113811,_ZNSt3__113__vector_baseIN11GrammarRule6SymbolENS_9allocatorIS2_EEE5clearEv
FNDA:63,_ZNSt3__113__vector_baseI11GrammarRuleNS_9allocatorIS1_EEE5clearEv
FNDA:10,_ZNSt3__113__vector_baseINS_12basic_stringIcNS_11char_traitsIcEENS_9allocatorIcEEEENS4_IS6_EEE5clearEv
FNDA:8,_ZNSt3__113__vector_baseINS_3setI9SituationNS_4lessIS2_EENS_9allocatorIS2_EEEENS5_IS7_EEE5clearEv
FNDA:173,_ZNKSt3__113__vector_baseI11GrammarRuleNS_9allocatorIS1_EEE8capacityEv
FNDA:341273,_ZNKSt3__113__vector_baseIN11GrammarRule6SymbolENS_9allocatorIS2_EEE8capacityEv
FNDA:28,_ZNKSt3__113__vector_baseINS_12basic_stringIcNS_11char_traitsIcEENS_9allocatorIcEEEENS4_IS6_EEE8capacityEv
FNDA:8,_ZNKSt3__113__vector_baseINS_3setI9SituationNS_4lessIS2_EENS_9allocatorIS2_EEEENS5_IS7_EEE8capacityEv
FNDA:113811,_ZNSt3__113__vector_baseIN11GrammarRule6SymbolENS_9allocatorIS2_EEE17__destruct_at_endEPS2_
FNDA:63,_ZNSt3__113__vector_baseI11GrammarRuleNS_9allocatorIS1_EEE17__destruct_at_endEPS1_
FNDA:10,_ZNSt3__113__vector_baseINS_12basic_stringIcNS_11char_traitsIcEENS_9allocatorIcEEEENS4_IS6_EEE17__destruct_at_endEPS6_
FNDA:8,_ZNSt3__113__vector_baseINS_3setI9SituationNS_4lessIS2_EENS_9allocatorIS2_EEEENS5_IS7_EEE17__destruct_at_endEPS7_
FNDA:8,_ZNSt3__113__vector_baseINS_3setI9SituationNS_4lessIS2_EENS_9allocatorIS2_EEEENS5_IS7_EEEC2Ev
FNDA:16,_ZNSt3__113__vector_baseI11GrammarRuleNS_9allocatorIS1_EEEC2Ev
FNDA:8,_ZNSt3__113__vector_baseINS_12basic_stringIcNS_11char_traitsIcEENS_9allocatorIcEEEENS4_IS6_EEEC2Ev
FNDA:47,_ZNSt3__113__vector_baseI11GrammarRuleNS_9allocatorIS1_EEEC2EOS3_
FNDA:118046,_ZNSt3__113__vector_baseIN11GrammarRule6SymbolENS_9allocatorIS2_EEEC2EOS4_
FNDA:63,_ZNSt3__113__vector_baseI11GrammarRuleNS_9allocatorIS1_EEED2Ev
FNDA:118218,_ZNSt3__113__vector_baseIN11GrammarRule6SymbolENS_9allocatorIS2_EEED2Ev
FNDA:11,_ZNSt3__113__vector_baseINS_12basic_stringIcNS_11char_traitsIcEENS_9allocatorIcEEEENS4_IS6_EEED2Ev
FNDA:8,_ZNSt3__113__vector_baseINS_3setI9SituationNS_4lessIS2_EENS_9allocatorIS2_EEEENS5_IS7_EEED2Ev
FNDA:11,_ZNSt3__16vectorINS_12basic_stringIcNS_11char_traitsIcEENS_9allocatorIcEEEENS4_IS6_EEED1Ev
FNDA:11,_ZNSt3__16vectorINS_12basic_stringIcNS_11char_traitsIcEENS_9allocatorIcEEEENS4_IS6_EEED2Ev
FNDA:8,_ZNSt3__16vectorINS_3setI9SituationNS_4lessIS2_EENS_9allocatorIS2_EEEENS5_IS7_EEEC1Ev
FNDA:8,_ZNSt3__16vectorINS_3setI9SituationNS_4lessIS2_EENS_9allocatorIS2_EEEENS5_IS7_EEEC2Ev
FNDA:16,_ZNSt3__16vectorI11GrammarRuleNS_9allocatorIS1_EEEC1Ev
FNDA:16,_ZNSt3__16vectorI11GrammarRuleNS_9allocatorIS1_EEEC2Ev
FNDA:47,_ZNKSt3__16vectorI11GrammarRuleNS_9allocatorIS1_EEE4sizeEv
FNDA:118046,_ZNKSt3__16vectorIN11GrammarRule6SymbolENS_9allocatorIS2_EEE4sizeEv
FNDA:110,_ZNKSt3__16vectorI11GrammarRuleNS_9allocatorIS1_EEE8capacityEv
FNDA:227462,_ZNKSt3__16vectorIN11GrammarRule6SymbolENS_9allocatorIS2_EEE8capacityEv
FNDA:18,_ZNKSt3__16vectorINS_12basic_stringIcNS_11char_traitsIcEENS_9allocatorIcEEEENS4_IS6_EEE8capacityEv
FNDA:220,_ZNKSt3__16vectorI11GrammarRuleNS_9allocatorIS1_EEE4dataEv
FNDA:454924,_ZNKSt3__16vectorIN11GrammarRule6SymbolENS_9allocatorIS2_EEE4dataEv
FNDA:36,_ZNKSt3__16vectorINS_12basic_stringIcNS_11char_traitsIcEENS_9allocatorIcEEEENS4_IS6_EEE4dataEv
FNDA:55,_ZNKSt3__16vectorI11GrammarRuleNS_9allocatorIS1_EEE31__annotate_contiguous_containerEPKvS6_S6_S6_
FNDA:113731,_ZNKSt3__16vectorIN11GrammarRule6SymbolENS_9allocatorIS2_EEE31__annotate_contiguous_containerEPKvS7_S7_S7_
FNDA:9,_ZNKSt3__16vectorINS_12basic_stringIcNS_11char_traitsIcEENS_9allocatorIcEEEENS4_IS6_EEE31__annotate_contiguous_containerEPKvSA_SA_SA_
FNDA:55,_ZNKSt3__16vectorI11GrammarRuleNS_9allocatorIS1_EEE14__annotate_newEm
FNDA:113731,_ZNKSt3__16vectorIN11GrammarRule6SymbolENS_9allocatorIS2_EEE14__annotate_newEm
FNDA:9,_ZNKSt3__16vectorINS_12basic_stringIcNS_11char_traitsIcEENS_9allocatorIcEEEENS4_IS6_EEE14__annotate_newEm
FNDA:55,_ZNSt3__16vectorI11GrammarRuleNS_9allocatorIS1_EEE24__RAII_IncreaseAnnotatorC1ERKS4_m
FNDA:55,_ZNSt3__16vectorI11GrammarRuleNS_9allocatorIS1_EEE24__RAII_IncreaseAnnotatorC2ERKS4_m
FNDA:113731,_ZNSt3__16vectorIN11GrammarRule6SymbolENS_9allocatorIS2_EEE24__RAII_IncreaseAnnotatorC1ERKS5_m
FNDA:113731,_ZNSt3__16vectorIN11GrammarRule6SymbolENS_9allocatorIS2_EEE24__RAII_IncreaseAnnotatorC2ERKS5_m
FNDA:8,_ZNSt3__16vectorINS_12basic_stringIcNS_11char_traitsIcEENS_9allocatorIcEEEENS4_IS6_EEE24__RAII_IncreaseAnnotatorC1ERKS8_m
FNDA:8,_ZNSt3__16vectorINS_12basic_stringIcNS_11char_traitsIcEENS_9allocatorIcEEEENS4_IS6_EEE24__RAII_IncreaseAnnotatorC2ERKS8_m
FNDA:55,_ZNSt3__16vectorI11GrammarRuleNS_9allocatorIS1_EEE24__RAII_IncreaseAnnotator6__doneEv
FNDA:113731,_ZNSt3__16vectorIN11GrammarRule6SymbolENS_9allocatorIS2_EEE24__RAII_IncreaseAnnotator6__doneEv
FNDA:8,_ZNSt3__16vectorINS_12basic_stringIcNS_11char_traitsIcEENS_9allocatorIcEEEENS4_IS6_EEE24__RAII_IncreaseAnnotator6__doneEv
FNDA:55,_ZNSt3__16vectorI11GrammarRuleNS_9allocatorIS1_EEE11__vallocateEm
FNDA:113731,_ZNSt3__16vectorIN11GrammarRule6SymbolENS_9allocatorIS2_EEE11__vallocateEm
FNDA:9,_ZNSt3__16vectorINS_12basic_stringIcNS_11char_traitsIcEENS_9allocatorIcEEEENS4_IS6_EEE11__vallocateEm
FNDA:97,_ZNKSt3__16vectorI11GrammarRuleNS_9allocatorIS1_EEE8max_sizeEv
FNDA:113934,_ZNKSt3__16vectorIN11GrammarRule6SymbolENS_9allocatorIS2_EEE8max_sizeEv
FNDA:10,_ZNKSt3__16vectorINS_12basic_stringIcNS_11char_traitsIcEENS_9allocatorIcEEEENS4_IS6_EEE8max_sizeEv
FNDA:55,_ZNSt3__16vectorI11GrammarRuleNS_9allocatorIS1_EEE18__construct_at_endIPS1_EENS_9enable_ifIXsr21__is_forward_iteratorIT_EE5valueEvE4typeES8_S8_m
FNDA:113731,_ZNSt3__16vectorIN11GrammarRule6SymbolENS_9allocatorIS2_EEE18__construct_at_endIPS2_EENS_9enable_ifIXsr21__is_forward_iteratorIT_EE5valueEvE4typeES9_S9_m
FNDA:8,_ZNSt3__16vectorINS_12basic_stringIcNS_11char_traitsIcEENS_9allocatorIcEEEENS4_IS6_EEE18__construct_at_endIPKS6_EENS_9enable_ifIXsr21__is_forward_iteratorIT_EE5valueEvE4typeESD_SD_m
FNDA:47,_ZNSt3__16vectorI11GrammarRuleNS_9allocatorIS1_EEEC1ERKS4_
FNDA:47,_ZNSt3__16vectorI11GrammarRuleNS_9allocatorIS1_EEEC2ERKS4_
FNDA:118046,_ZNSt3__16vectorIN11GrammarRule6SymbolENS_9allocatorIS2_EEEC1ERKS5_
FNDA:118046,_ZNSt3__16vectorIN11GrammarRule6SymbolENS_9allocatorIS2_EEEC2ERKS5_
FNDA:8,_ZNSt3__16vectorINS_12basic_stringIcNS_11char_traitsIcEENS_9allocatorIcEEEENS4_IS6_EEEC1ESt16initializer_listIS6_E
FNDA:8,_ZNSt3__16vectorINS_12basic_stringIcNS_11char_traitsIcEENS_9allocatorIcEEEENS4_IS6_EEEC2ESt16initializer_listIS6_E
FNDA:16,_ZNSt3__16vectorINS_12basic_stringIcNS_11char_traitsIcEENS_9allocatorIcEEEENS4_IS6_EEE11__make_iterEPS6_
FNDA:8,_ZNSt3__16vectorINS_12basic_stringIcNS_11char_traitsIcEENS_9allocatorIcEEEENS4_IS6_EEE5beginEv
FNDA:8,_ZNSt3__16vectorINS_12basic_stringIcNS_11char_traitsIcEENS_9allocatorIcEEEENS4_IS6_EEE3endEv
FNF:83
FNH:83
DA:298,118125
DA:343,637948
DA:346,232134
DA:349,113795
DA:352,341482
DA:355,32
DA:359,118093
DA:364,113892
DA:367,341482
DA:419,113892
DA:420,820718
DA:421,296467
DA:422,113892
DA:423,113892
DA:429,32
DA:430,32
DA:431,32
DA:432,32
DA:433,32
DA:448,118093
DA:449,118093
DA:450,354279
DA:456,118300
DA:458,113892
DA:459,113892
DA:460,113892
DA:461,118300
DA:464,22
DA:490,24
DA:491,48
DA:495,48
DA:558,8
DA:650,118093
DA:653,227590
DA:692,455180
DA:856,113795
DA:860,227590
DA:861,113795
DA:862,113795
DA:903,227588
DA:904,113794
DA:968,113795
DA:969,0
DA:970,113795
DA:971,113795
DA:972,113795
DA:973,113795
DA:991,342123
DA:992,114041
DA:1061,113794
DA:1062,113794
DA:1063,113794
DA:1064,113794
DA:1065,113794
DA:1237,118093
DA:1238,236186
DA:1242,118093
DA:1243,118093
DA:1245,113698
DA:1246,113698
DA:1247,113698
DA:1248,236186
DA:1315,16
DA:1319,8
DA:1321,8
DA:1322,8
DA:1323,8
DA:1324,16
DA:1483,16
DA:1504,8
DA:1520,8
LF:71
LH:70
end_of_record
SF:/Users/evgenabramov/MIPT-Formal-Practice2/Algo.h
FN:5,_ZN4AlgoC2Ev
FN:5,_ZN4AlgoC1Ev
FN:5,_ZN4AlgoD1Ev
FN:5,_ZN4AlgoD2Ev
FNDA:8,_ZN4AlgoC1Ev
FNDA:8,_ZN4AlgoD1Ev
FNDA:8,_ZN4AlgoC2Ev
FNDA:8,_ZN4AlgoD2Ev
FNF:4
FNH:4
DA:5,32
LF:1
LH:1
end_of_record
SF:/Users/evgenabramov/MIPT-Formal-Practice2/Grammar.h
FN:3,_ZN7GrammarD2Ev
FN:3,_ZN7GrammarD1Ev
FN:3,_ZN7GrammarC2ERKS_
FN:3,_ZN7GrammarC2Ev
FN:3,_ZN7GrammarC1Ev
FN:3,_ZN7GrammarC1ERKS_
FNDA:16,_ZN7GrammarC1Ev
FNDA:47,_ZN7GrammarC1ERKS_
FNDA:63,_ZN7GrammarD1Ev
FNDA:16,_ZN7GrammarC2Ev
FNDA:47,_ZN7GrammarC2ERKS_
FNDA:63,_ZN7GrammarD2Ev
FNF:6
FNH:6
DA:3,252
LF:1
LH:1
end_of_record
SF:/Users/evgenabramov/MIPT-Formal-Practice2/GrammarRule.h
FN:8,_ZN11GrammarRuleD2Ev
FN:8,_ZN11GrammarRuleD1Ev
FN:13,_ZN11GrammarRuleC2ERKS_
FN:13,_ZN11GrammarRuleC1ERKS_
FNDA:118218,_ZN11GrammarRuleD1Ev
FNDA:118218,_ZN11GrammarRuleD2Ev
FNDA:118046,_ZN11GrammarRuleC1ERKS_
FNDA:118046,_ZN11GrammarRuleC2ERKS_
FNF:4
FNH:4
DA:8,236436
DA:13,236092
LF:2
LH:2
end_of_record
SF:/Users/evgenabramov/MIPT-Formal-Practice2/Situation.h
FN:3,_ZN9SituationD2Ev
FN:3,_ZN9SituationD1Ev
FNDA:15750,_ZN9SituationD1Ev
FNDA:15750,_ZN9SituationD2Ev
FNF:2
FNH:2
DA:3,31500
LF:1
LH:1
end_of_record
SF:/Users/evgenabramov/MIPT-Formal-Practice2/googletest-master/googletest/include/gtest/gtest-message.h
FN:91,_ZN7testing7MessageD2Ev
FN:91,_ZN7testing7MessageD1Ev
FNDA:72,_ZN7testing7MessageD1Ev
FNDA:72,_ZN7testing7MessageD2Ev
FNF:2
FNH:2
DA:91,144
LF:1
LH:1
end_of_record
SF:/Users/evgenabramov/MIPT-Formal-Practice2/googletest-master/googletest/include/gtest/gtest.h
FN:292,_ZN7testing15AssertionResultD1Ev
FN:292,_ZN7testing15AssertionResultD2Ev
FN:310,_ZN7testing15AssertionResultC2IbEERKT_PNSt3__19enable_ifIXntsr3std14is_convertibleIS2_S0_EE5valueEvE4typeE
FN:310,_ZN7testing15AssertionResultC1IbEERKT_PNSt3__19enable_ifIXntsr3std14is_convertibleIS2_S0_EE5valueEvE4typeE
FN:329,_ZNK7testing15AssertionResultcvbEv
FN:436,_ZN7testing4Test14SetUpTestSuiteEv
FN:446,_ZN7testing4Test17TearDownTestSuiteEv
FN:451,_ZN7testing4Test16TearDownTestCaseEv
FN:453,_ZN7testing4Test13SetUpTestCaseEv
FN:538,_ZN7testing4Test5SetupEv
FNDA:47,_ZN7testing15AssertionResultD1Ev
FNDA:47,_ZN7testing15AssertionResultD2Ev
FNDA:47,_ZN7testing15AssertionResultC1IbEERKT_PNSt3__19enable_ifIXntsr3std14is_convertibleIS2_S0_EE5valueEvE4typeE
FNDA:47,_ZN7testing15AssertionResultC2IbEERKT_PNSt3__19enable_ifIXntsr3std14is_convertibleIS2_S0_EE5valueEvE4typeE
FNDA:47,_ZNK7testing15AssertionResultcvbEv
FNDA:0,_ZN7testing4Test14SetUpTestSuiteEv
FNDA:0,_ZN7testing4Test17TearDownTestSuiteEv
FNDA:0,_ZN7testing4Test16TearDownTestCaseEv
FNDA:0,_ZN7testing4Test13SetUpTestCaseEv
FNDA:0,_ZN7testing4Test5SetupEv
FNF:10
FNH:5
DA:292,94
DA:310,47
DA:316,141
DA:329,47
DA:436,0
DA:446,0
DA:451,0
DA:453,0
DA:538,0
LF:9
LH:4
end_of_record
SF:/Users/evgenabramov/MIPT-Formal-Practice2/googletest-master/googletest/include/gtest/internal/gtest-internal.h
FN:451,_ZN7testing8internal15TestFactoryBaseD2Ev
FN:451,_ZN7testing8internal15TestFactoryBaseD0Ev
FN:451,_ZN7testing8internal15TestFactoryBaseD1Ev
FN:458,_ZN7testing8internal15TestFactoryBaseC2Ev
FN:467,_ZN7testing8internal15TestFactoryImplI38EmptyRightPart_FewTypesOfBrackets_TestED0Ev
FN:467,_ZN7testing8internal15TestFactoryImplI33TestForPractice_FirstVariant_TestED1Ev
FN:467,_ZN7testing8internal15TestFactoryImplI37EmptyRightPart_OneTypeOfBrackets_TestEC1Ev
FN:467,_ZN7testing8internal15TestFactoryImplI38EmptyRightPart_FewTypesOfBrackets_TestEC2Ev
FN:467,_ZN7testing8internal15TestFactoryImplI38EmptyRightPart_FewTypesOfBrackets_TestED2Ev
FN:467,_ZN7testing8internal15TestFactoryImplI33TestForPractice_FirstVariant_TestED0Ev
FN:467,_ZN7testing8internal15TestFactoryImplI27SimpleCase_OneTerminal_TestEC1Ev
FN:467,_ZN7testing8internal15TestFactoryImplI27SimpleCase_OneTerminal_TestEC2Ev
FN:467,_ZN7testing8internal15TestFactoryImplI37EmptyRightPart_OneTypeOfBrackets_TestED1Ev
FN:467,_ZN7testing8internal15TestFactoryImplI27SimpleCase_OneTerminal_TestED2Ev
FN:467,_ZN7testing8internal15TestFactoryImplI40DoubledNumberOfLetters_TwoTerminals_TestED2Ev
FN:467,_ZN7testing8internal15TestFactoryImplI42RegularExpressions_TwoLettersAlphabet_TestEC2Ev
FN:467,_ZN7testing8internal15TestFactoryImplI37SameNumberOfLetters_TwoTerminals_TestEC2Ev
FN:467,_ZN7testing8internal15TestFactoryImplI42RegularExpressions_TwoLettersAlphabet_TestED0Ev
FN:467,_ZN7testing8internal15TestFactoryImplI40DoubledNumberOfLetters_TwoTerminals_TestED0Ev
FN:467,_ZN7testing8internal15TestFactoryImplI37SameNumberOfLetters_TwoTerminals_TestEC1Ev
FN:467,_ZN7testing8internal15TestFactoryImplI40DoubledNumberOfLetters_TwoTerminals_TestED1Ev
FN:467,_ZN7testing8internal15TestFactoryImplI38EmptyRightPart_FewTypesOfBrackets_TestED1Ev
FN:467,_ZN7testing8internal15TestFactoryImplI42RegularExpressions_TwoLettersAlphabet_TestED1Ev
FN:467,_ZN7testing8internal15TestFactoryImplI37SameNumberOfLetters_TwoTerminals_TestED0Ev
FN:467,_ZN7testing8internal15TestFactoryImplI40DoubledNumberOfLetters_TwoTerminals_TestEC2Ev
FN:467,_ZN7testing8internal15TestFactoryImplI27SimpleCase_OneTerminal_TestED1Ev
FN:467,_ZN7testing8internal15TestFactoryImplI56NotOneDifferenceBetweenNumberOfLetters_TwoTerminals_TestED2Ev
FN:467,_ZN7testing8internal15TestFactoryImplI37SameNumberOfLetters_TwoTerminals_TestED1Ev
FN:467,_ZN7testing8internal15TestFactoryImplI37EmptyRightPart_OneTypeOfBrackets_TestED0Ev
FN:467,_ZN7testing8internal15TestFactoryImplI42RegularExpressions_TwoLettersAlphabet_TestEC1Ev
FN:467,_ZN7testing8internal15TestFactoryImplI27SimpleCase_OneTerminal_TestED0Ev
FN:467,_ZN7testing8internal15TestFactoryImplI56NotOneDifferenceBetweenNumberOfLetters_TwoTerminals_TestEC2Ev
FN:467,_ZN7testing8internal15TestFactoryImplI33TestForPractice_FirstVariant_TestEC1Ev
FN:467,_ZN7testing8internal15TestFactoryImplI33TestForPractice_FirstVariant_TestED2Ev
FN:467,_ZN7testing8internal15TestFactoryImplI56NotOneDifferenceBetweenNumberOfLetters_TwoTerminals_TestED0Ev
FN:467,_ZN7testing8internal15TestFactoryImplI33TestForPractice_FirstVariant_TestEC2Ev
FN:467,_ZN7testing8internal15TestFactoryImplI40DoubledNumberOfLetters_TwoTerminals_TestEC1Ev
FN:467,_ZN7testing8internal15TestFactoryImplI42RegularExpressions_TwoLettersAlphabet_TestED2Ev
FN:467,_ZN7testing8internal15TestFactoryImplI56NotOneDifferenceBetweenNumberOfLetters_TwoTerminals_TestED1Ev
FN:467,_ZN7testing8internal15TestFactoryImplI37SameNumberOfLetters_TwoTerminals_TestED2Ev
FN:467,_ZN7testing8internal15TestFactoryImplI37EmptyRightPart_OneTypeOfBrackets_TestED2Ev
FN:467,_ZN7testing8internal15TestFactoryImplI38EmptyRightPart_FewTypesOfBrackets_TestEC1Ev
FN:467,_ZN7testing8internal15TestFactoryImplI37EmptyRightPart_OneTypeOfBrackets_TestEC2Ev
FN:467,_ZN7testing8internal15TestFactoryImplI56NotOneDifferenceBetweenNumberOfLetters_TwoTerminals_TestEC1Ev
FN:469,_ZN7testing8internal15TestFactoryImplI27SimpleCase_OneTerminal_TestE10CreateTestEv
FN:469,_ZN7testing8internal15TestFactoryImplI37EmptyRightPart_OneTypeOfBrackets_TestE10CreateTestEv
FN:469,_ZN7testing8internal15TestFactoryImplI37SameNumberOfLetters_TwoTerminals_TestE10CreateTestEv
FN:469,_ZN7testing8internal15TestFactoryImplI42RegularExpressions_TwoLettersAlphabet_TestE10CreateTestEv
FN:469,_ZN7testing8internal15TestFactoryImplI38EmptyRightPart_FewTypesOfBrackets_TestE10CreateTestEv
FN:469,_ZN7testing8internal15TestFactoryImplI40DoubledNumberOfLetters_TwoTerminals_TestE10CreateTestEv
FN:469,_ZN7testing8internal15TestFactoryImplI56NotOneDifferenceBetweenNumberOfLetters_TwoTerminals_TestE10CreateTestEv
FN:469,_ZN7testing8internal15TestFactoryImplI33TestForPractice_FirstVariant_TestE10CreateTestEv
FN:489,_ZN7testing8internal12CodeLocationD1Ev
FN:489,_ZN7testing8internal12CodeLocationD2Ev
FN:490,_ZN7testing8internal12CodeLocationC1ERKNSt3__112basic_stringIcNS2_11char_traitsIcEENS2_9allocatorIcEEEEi
FN:490,_ZN7testing8internal12CodeLocationC2ERKNSt3__112basic_stringIcNS2_11char_traitsIcEENS2_9allocatorIcEEEEi
FN:503,_ZN7testing8internal19GetNotDefaultOrNullEPFvvES2_
FN:518,_ZN7testing8internal16SuiteApiResolverINS_4TestEE19GetSetUpCaseOrSuiteEPKci
FN:533,_ZN7testing8internal16SuiteApiResolverINS_4TestEE22GetTearDownCaseOrSuiteEPKci
FNDA:0,_ZN7testing8internal15TestFactoryBaseD1Ev
FNDA:0,_ZN7testing8internal15TestFactoryBaseD0Ev
FNDA:8,_ZN7testing8internal15TestFactoryBaseD2Ev
FNDA:8,_ZN7testing8internal15TestFactoryBaseC2Ev
FNDA:1,_ZN7testing8internal15TestFactoryImplI27SimpleCase_OneTerminal_TestEC1Ev
FNDA:1,_ZN7testing8internal15TestFactoryImplI37EmptyRightPart_OneTypeOfBrackets_TestEC1Ev
FNDA:1,_ZN7testing8internal15TestFactoryImplI38EmptyRightPart_FewTypesOfBrackets_TestEC1Ev
FNDA:1,_ZN7testing8internal15TestFactoryImplI42RegularExpressions_TwoLettersAlphabet_TestEC1Ev
FNDA:1,_ZN7testing8internal15TestFactoryImplI37SameNumberOfLetters_TwoTerminals_TestEC1Ev
FNDA:1,_ZN7testing8internal15TestFactoryImplI56NotOneDifferenceBetweenNumberOfLetters_TwoTerminals_TestEC1Ev
FNDA:1,_ZN7testing8internal15TestFactoryImplI40DoubledNumberOfLetters_TwoTerminals_TestEC1Ev
FNDA:1,_ZN7testing8internal15TestFactoryImplI33TestForPractice_FirstVariant_TestEC1Ev
FNDA:1,_ZN7testing8internal15TestFactoryImplI27SimpleCase_OneTerminal_TestEC2Ev
FNDA:1,_ZN7testing8internal15TestFactoryImplI27SimpleCase_OneTerminal_TestED1Ev
FNDA:1,_ZN7testing8internal15TestFactoryImplI27SimpleCase_OneTerminal_TestED0Ev
FNDA:1,_ZN7testing8internal15TestFactoryImplI27SimpleCase_OneTerminal_TestED2Ev
FNDA:1,_ZN7testing8internal15TestFactoryImplI37EmptyRightPart_OneTypeOfBrackets_TestEC2Ev
FNDA:1,_ZN7testing8internal15TestFactoryImplI37EmptyRightPart_OneTypeOfBrackets_TestED1Ev
FNDA:1,_ZN7testing8internal15TestFactoryImplI37EmptyRightPart_OneTypeOfBrackets_TestED0Ev
FNDA:1,_ZN7testing8internal15TestFactoryImplI37EmptyRightPart_OneTypeOfBrackets_TestED2Ev
FNDA:1,_ZN7testing8internal15TestFactoryImplI38EmptyRightPart_FewTypesOfBrackets_TestEC2Ev
FNDA:1,_ZN7testing8internal15TestFactoryImplI38EmptyRightPart_FewTypesOfBrackets_TestED1Ev
FNDA:1,_ZN7testing8internal15TestFactoryImplI38EmptyRightPart_FewTypesOfBrackets_TestED0Ev
FNDA:1,_ZN7testing8internal15TestFactoryImplI38EmptyRightPart_FewTypesOfBrackets_TestED2Ev
FNDA:1,_ZN7testing8internal15TestFactoryImplI42RegularExpressions_TwoLettersAlphabet_TestEC2Ev
FNDA:1,_ZN7testing8internal15TestFactoryImplI42RegularExpressions_TwoLettersAlphabet_TestED1Ev
FNDA:1,_ZN7testing8internal15TestFactoryImplI42RegularExpressions_TwoLettersAlphabet_TestED0Ev
FNDA:1,_ZN7testing8internal15TestFactoryImplI42RegularExpressions_TwoLettersAlphabet_TestED2Ev
FNDA:1,_ZN7testing8internal15TestFactoryImplI37SameNumberOfLetters_TwoTerminals_TestEC2Ev
FNDA:1,_ZN7testing8internal15TestFactoryImplI37SameNumberOfLetters_TwoTerminals_TestED1Ev
FNDA:1,_ZN7testing8internal15TestFactoryImplI37SameNumberOfLetters_TwoTerminals_TestED0Ev
FNDA:1,_ZN7testing8internal15TestFactoryImplI37SameNumberOfLetters_TwoTerminals_TestED2Ev
FNDA:1,_ZN7testing8internal15TestFactoryImplI56NotOneDifferenceBetweenNumberOfLetters_TwoTerminals_TestEC2Ev
FNDA:1,_ZN7testing8internal15TestFactoryImplI56NotOneDifferenceBetweenNumberOfLetters_TwoTerminals_TestED1Ev
FNDA:1,_ZN7testing8internal15TestFactoryImplI56NotOneDifferenceBetweenNumberOfLetters_TwoTerminals_TestED0Ev
FNDA:1,_ZN7testing8internal15TestFactoryImplI56NotOneDifferenceBetweenNumberOfLetters_TwoTerminals_TestED2Ev
FNDA:1,_ZN7testing8internal15TestFactoryImplI40DoubledNumberOfLetters_TwoTerminals_TestEC2Ev
FNDA:1,_ZN7testing8internal15TestFactoryImplI40DoubledNumberOfLetters_TwoTerminals_TestED1Ev
FNDA:1,_ZN7testing8internal15TestFactoryImplI40DoubledNumberOfLetters_TwoTerminals_TestED0Ev
FNDA:1,_ZN7testing8internal15TestFactoryImplI40DoubledNumberOfLetters_TwoTerminals_TestED2Ev
FNDA:1,_ZN7testing8internal15TestFactoryImplI33TestForPractice_FirstVariant_TestEC2Ev
FNDA:1,_ZN7testing8internal15TestFactoryImplI33TestForPractice_FirstVariant_TestED1Ev
FNDA:1,_ZN7testing8internal15TestFactoryImplI33TestForPractice_FirstVariant_TestED0Ev
FNDA:1,_ZN7testing8internal15TestFactoryImplI33TestForPractice_FirstVariant_TestED2Ev
FNDA:1,_ZN7testing8internal15TestFactoryImplI27SimpleCase_OneTerminal_TestE10CreateTestEv
FNDA:1,_ZN7testing8internal15TestFactoryImplI37EmptyRightPart_OneTypeOfBrackets_TestE10CreateTestEv
FNDA:1,_ZN7testing8internal15TestFactoryImplI38EmptyRightPart_FewTypesOfBrackets_TestE10CreateTestEv
FNDA:1,_ZN7testing8internal15TestFactoryImplI42RegularExpressions_TwoLettersAlphabet_TestE10CreateTestEv
FNDA:1,_ZN7testing8internal15TestFactoryImplI37SameNumberOfLetters_TwoTerminals_TestE10CreateTestEv
FNDA:1,_ZN7testing8internal15TestFactoryImplI56NotOneDifferenceBetweenNumberOfLetters_TwoTerminals_TestE10CreateTestEv
FNDA:1,_ZN7testing8internal15TestFactoryImplI40DoubledNumberOfLetters_TwoTerminals_TestE10CreateTestEv
FNDA:1,_ZN7testing8internal15TestFactoryImplI33TestForPractice_FirstVariant_TestE10CreateTestEv
FNDA:24,_ZN7testing8internal12CodeLocationD1Ev
FNDA:24,_ZN7testing8internal12CodeLocationD2Ev
FNDA:8,_ZN7testing8internal12CodeLocationC1ERKNSt3__112basic_stringIcNS2_11char_traitsIcEENS2_9allocatorIcEEEEi
FNDA:8,_ZN7testing8internal12CodeLocationC2ERKNSt3__112basic_stringIcNS2_11char_traitsIcEENS2_9allocatorIcEEEEi
FNDA:32,_ZN7testing8internal19GetNotDefaultOrNullEPFvvES2_
FNDA:8,_ZN7testing8internal16SuiteApiResolverINS_4TestEE19GetSetUpCaseOrSuiteEPKci
FNDA:8,_ZN7testing8internal16SuiteApiResolverINS_4TestEE22GetTearDownCaseOrSuiteEPKci
FNF:59
FNH:57
DA:451,8
DA:458,8
DA:467,40
DA:469,16
DA:489,48
DA:491,16
DA:505,96
DA:520,8
DA:521,8
DA:522,8
DA:523,8
DA:525,24
DA:526,0
DA:528,0
DA:530,24
DA:531,0
DA:535,8
DA:536,8
DA:537,8
DA:538,8
DA:540,24
DA:541,0
DA:543,0
DA:545,24
DA:546,0
LF:25
LH:19
end_of_record
SF:/Users/evgenabramov/MIPT-Formal-Practice2/googletest-master/googletest/include/gtest/internal/gtest-port.h
FN:952,_ZN7testing8internal8GTestLog9GetStreamEv
FNDA:0,_ZN7testing8internal8GTestLog9GetStreamEv
FNF:1
FNH:0
DA:952,0
LF:1
LH:0
end_of_record
SF:/Users/evgenabramov/MIPT-Formal-Practice2/tests.cpp
FN:4,_ZN27SimpleCase_OneTerminal_TestD0Ev
FN:4,_ZN27SimpleCase_OneTerminal_TestC2Ev
FN:4,_ZN27SimpleCase_OneTerminal_TestD2Ev
FN:4,_ZN27SimpleCase_OneTerminal_Test8TestBodyEv
FN:4,_ZN27SimpleCase_OneTerminal_TestC1Ev
FN:4,__cxx_global_var_init
FN:4,_ZN27SimpleCase_OneTerminal_TestD1Ev
FN:19,_ZN37EmptyRightPart_OneTypeOfBrackets_TestC1Ev
FN:19,__cxx_global_var_init.13
FN:19,_ZN37EmptyRightPart_OneTypeOfBrackets_TestD0Ev
FN:19,_ZN37EmptyRightPart_OneTypeOfBrackets_TestC2Ev
FN:19,_ZN37EmptyRightPart_OneTypeOfBrackets_TestD2Ev
FN:19,_ZN37EmptyRightPart_OneTypeOfBrackets_Test8TestBodyEv
FN:19,_ZN37EmptyRightPart_OneTypeOfBrackets_TestD1Ev
FN:37,_ZN38EmptyRightPart_FewTypesOfBrackets_TestD0Ev
FN:37,__cxx_global_var_init.29
FN:37,_ZN38EmptyRightPart_FewTypesOfBrackets_TestD1Ev
FN:37,_ZN38EmptyRightPart_FewTypesOfBrackets_Test8TestBodyEv
FN:37,_ZN38EmptyRightPart_FewTypesOfBrackets_TestC1Ev
FN:37,_ZN38EmptyRightPart_FewTypesOfBrackets_TestC2Ev
FN:37,_ZN38EmptyRightPart_FewTypesOfBrackets_TestD2Ev
FN:57,__cxx_global_var_init.43
FN:57,_ZN42RegularExpressions_TwoLettersAlphabet_TestD1Ev
FN:57,_ZN42RegularExpressions_TwoLettersAlphabet_TestC2Ev
FN:57,_ZN42RegularExpressions_TwoLettersAlphabet_TestC1Ev
FN:57,_ZN42RegularExpressions_TwoLettersAlphabet_TestD0Ev
FN:57,_ZN42RegularExpressions_TwoLettersAlphabet_Test8TestBodyEv
FN:57,_ZN42RegularExpressions_TwoLettersAlphabet_TestD2Ev
FN:83,_ZN37SameNumberOfLetters_TwoTerminals_TestD1Ev
FN:83,_ZN37SameNumberOfLetters_TwoTerminals_TestC2Ev
FN:83,_ZN37SameNumberOfLetters_TwoTerminals_Test8TestBodyEv
FN:83,_ZN37SameNumberOfLetters_TwoTerminals_TestC1Ev
FN:83,__cxx_global_var_init.65
FN:83,_ZN37SameNumberOfLetters_TwoTerminals_TestD0Ev
FN:83,_ZN37SameNumberOfLetters_TwoTerminals_TestD2Ev
FN:102,_ZN56NotOneDifferenceBetweenNumberOfLetters_TwoTerminals_Test8TestBodyEv
FN:102,_ZN56NotOneDifferenceBetweenNumberOfLetters_TwoTerminals_TestD0Ev
FN:102,_ZN56NotOneDifferenceBetweenNumberOfLetters_TwoTerminals_TestD1Ev
FN:102,__cxx_global_var_init.80
FN:102,_ZN56NotOneDifferenceBetweenNumberOfLetters_TwoTerminals_TestC1Ev
FN:102,_ZN56NotOneDifferenceBetweenNumberOfLetters_TwoTerminals_TestD2Ev
FN:102,_ZN56NotOneDifferenceBetweenNumberOfLetters_TwoTerminals_TestC2Ev
FN:130,_ZN40DoubledNumberOfLetters_TwoTerminals_TestC1Ev
FN:130,_ZN40DoubledNumberOfLetters_TwoTerminals_TestD2Ev
FN:130,__cxx_global_var_init.99
FN:130,_ZN40DoubledNumberOfLetters_TwoTerminals_TestC2Ev
FN:130,_ZN40DoubledNumberOfLetters_TwoTerminals_Test8TestBodyEv
FN:130,_ZN40DoubledNumberOfLetters_TwoTerminals_TestD0Ev
FN:130,_ZN40DoubledNumberOfLetters_TwoTerminals_TestD1Ev
FN:150,_ZN33TestForPractice_FirstVariant_Test8TestBodyEv
FN:150,_ZN33TestForPractice_FirstVariant_TestD2Ev
FN:150,_ZN33TestForPractice_FirstVariant_TestC2Ev
FN:150,_ZN33TestForPractice_FirstVariant_TestD1Ev
FN:150,_ZN33TestForPractice_FirstVariant_TestC1Ev
FN:150,_ZN33TestForPractice_FirstVariant_TestD0Ev
FN:150,__cxx_global_var_init.110
FNDA:1,__cxx_global_var_init
FNDA:1,_ZN27SimpleCase_OneTerminal_Test8TestBodyEv
FNDA:1,_ZN27SimpleCase_OneTerminal_TestD1Ev
FNDA:1,_ZN27SimpleCase_OneTerminal_TestD0Ev
FNDA:1,_ZN27SimpleCase_OneTerminal_TestC1Ev
FNDA:1,_ZN27SimpleCase_OneTerminal_TestC2Ev
FNDA:1,_ZN27SimpleCase_OneTerminal_TestD2Ev
FNDA:1,__cxx_global_var_init.13
FNDA:1,_ZN37EmptyRightPart_OneTypeOfBrackets_Test8TestBodyEv
FNDA:1,_ZN37EmptyRightPart_OneTypeOfBrackets_TestD1Ev
FNDA:1,_ZN37EmptyRightPart_OneTypeOfBrackets_TestD0Ev
FNDA:1,_ZN37EmptyRightPart_OneTypeOfBrackets_TestC1Ev
FNDA:1,_ZN37EmptyRightPart_OneTypeOfBrackets_TestC2Ev
FNDA:1,_ZN37EmptyRightPart_OneTypeOfBrackets_TestD2Ev
FNDA:1,__cxx_global_var_init.29
FNDA:1,_ZN38EmptyRightPart_FewTypesOfBrackets_Test8TestBodyEv
FNDA:1,_ZN38EmptyRightPart_FewTypesOfBrackets_TestD1Ev
FNDA:1,_ZN38EmptyRightPart_FewTypesOfBrackets_TestD0Ev
FNDA:1,_ZN38EmptyRightPart_FewTypesOfBrackets_TestC1Ev
FNDA:1,_ZN38EmptyRightPart_FewTypesOfBrackets_TestC2Ev
FNDA:1,_ZN38EmptyRightPart_FewTypesOfBrackets_TestD2Ev
FNDA:1,__cxx_global_var_init.43
FNDA:1,_ZN42RegularExpressions_TwoLettersAlphabet_Test8TestBodyEv
FNDA:1,_ZN42RegularExpressions_TwoLettersAlphabet_TestD1Ev
FNDA:1,_ZN42RegularExpressions_TwoLettersAlphabet_TestD0Ev
FNDA:1,_ZN42RegularExpressions_TwoLettersAlphabet_TestC1Ev
FNDA:1,_ZN42RegularExpressions_TwoLettersAlphabet_TestC2Ev
FNDA:1,_ZN42RegularExpressions_TwoLettersAlphabet_TestD2Ev
FNDA:1,__cxx_global_var_init.65
FNDA:1,_ZN37SameNumberOfLetters_TwoTerminals_Test8TestBodyEv
FNDA:1,_ZN37SameNumberOfLetters_TwoTerminals_TestD1Ev
FNDA:1,_ZN37SameNumberOfLetters_TwoTerminals_TestD0Ev
FNDA:1,_ZN37SameNumberOfLetters_TwoTerminals_TestC1Ev
FNDA:1,_ZN37SameNumberOfLetters_TwoTerminals_TestC2Ev
FNDA:1,_ZN37SameNumberOfLetters_TwoTerminals_TestD2Ev
FNDA:1,__cxx_global_var_init.80
FNDA:1,_ZN56NotOneDifferenceBetweenNumberOfLetters_TwoTerminals_Test8TestBodyEv
FNDA:1,_ZN56NotOneDifferenceBetweenNumberOfLetters_TwoTerminals_TestD1Ev
FNDA:1,_ZN56NotOneDifferenceBetweenNumberOfLetters_TwoTerminals_TestD0Ev
FNDA:1,_ZN56NotOneDifferenceBetweenNumberOfLetters_TwoTerminals_TestC1Ev
FNDA:1,_ZN56NotOneDifferenceBetweenNumberOfLetters_TwoTerminals_TestC2Ev
FNDA:1,_ZN56NotOneDifferenceBetweenNumberOfLetters_TwoTerminals_TestD2Ev
FNDA:1,__cxx_global_var_init.99
FNDA:1,_ZN40DoubledNumberOfLetters_TwoTerminals_Test8TestBodyEv
FNDA:1,_ZN40DoubledNumberOfLetters_TwoTerminals_TestD1Ev
FNDA:1,_ZN40DoubledNumberOfLetters_TwoTerminals_TestD0Ev
FNDA:1,_ZN40DoubledNumberOfLetters_TwoTerminals_TestC1Ev
FNDA:1,_ZN40DoubledNumberOfLetters_TwoTerminals_TestC2Ev
FNDA:1,_ZN40DoubledNumberOfLetters_TwoTerminals_TestD2Ev
FNDA:1,__cxx_global_var_init.110
FNDA:1,_ZN33TestForPractice_FirstVariant_Test8TestBodyEv
FNDA:1,_ZN33TestForPractice_FirstVariant_TestD1Ev
FNDA:1,_ZN33TestForPractice_FirstVariant_TestD0Ev
FNDA:1,_ZN33TestForPractice_FirstVariant_TestC1Ev
FNDA:1,_ZN33TestForPractice_FirstVariant_TestC2Ev
FNDA:1,_ZN33TestForPractice_FirstVariant_TestD2Ev
FNF:56
FNH:56
DA:4,14
DA:5,1
DA:6,1
DA:7,6
DA:8,1
DA:9,1
DA:11,10
DA:12,2
DA:14,8
DA:15,8
DA:16,8
DA:17,1
DA:19,14
DA:20,1
DA:21,1
DA:22,6
DA:23,1
DA:24,1
DA:26,10
DA:27,2
DA:29,8
DA:30,8
DA:31,8
DA:32,8
DA:33,8
DA:34,8
DA:35,1
DA:37,14
DA:38,1
DA:39,1
DA:40,10
DA:41,1
DA:42,1
DA:43,1
DA:44,1
DA:46,18
DA:47,4
DA:49,8
DA:50,8
DA:51,8
DA:52,8
DA:53,8
DA:54,8
DA:55,1
DA:57,14
DA:58,1
DA:59,1
DA:60,22
DA:61,1
DA:62,1
DA:63,1
DA:64,1
DA:65,1
DA:66,1
DA:67,1
DA:68,1
DA:69,1
DA:70,1
DA:72,42
DA:73,10
DA:75,8
DA:76,8
DA:77,8
DA:78,8
DA:79,8
DA:80,8
DA:81,1
DA:83,14
DA:84,1
DA:85,1
DA:86,8
DA:87,1
DA:88,1
DA:89,1
DA:91,14
DA:92,3
DA:94,8
DA:95,8
DA:96,8
DA:97,8
DA:98,8
DA:99,8
DA:100,1
DA:102,14
DA:104,1
DA:105,1
DA:106,24
DA:107,1
DA:108,1
DA:109,1
DA:110,1
DA:111,1
DA:112,1
DA:113,1
DA:114,1
DA:115,1
DA:116,1
DA:117,1
DA:119,46
DA:120,11
DA:122,8
DA:123,8
DA:124,8
DA:125,8
DA:126,8
DA:127,8
DA:128,1
DA:130,14
DA:132,1
DA:133,1
DA:134,6
DA:135,1
DA:136,1
DA:138,10
DA:139,2
DA:141,8
DA:142,8
DA:143,8
DA:144,8
DA:145,8
DA:146,8
DA:147,8
DA:148,1
DA:150,14
DA:151,1
DA:152,1
DA:153,12
DA:154,1
DA:155,1
DA:156,1
DA:157,1
DA:158,1
DA:160,22
DA:161,5
DA:163,8
DA:164,8
DA:165,8
DA:166,8
DA:167,8
DA:168,8
DA:169,8
DA:170,1
LF:142
LH:142
end_of_record
TN:
SF:/Library/Developer/CommandLineTools/usr/include/c++/v1/__functional_base
FN:54,_ZNKSt3__14lessI9SituationEclERKS1_S4_
FNDA:50945,_ZNKSt3__14lessI9SituationEclERKS1_S4_
FNF:1
FNH:1
DA:55,50945
LF:1
LH:1
end_of_record
SF:/Library/Developer/CommandLineTools/usr/include/c++/v1/__split_buffer
FN:56,_ZNSt3__114__split_bufferINS_3setI9SituationNS_4lessIS2_EENS_9allocatorIS2_EEEERNS5_IS7_EEE7__allocEv
FN:58,_ZNSt3__114__split_bufferINS_3setI9SituationNS_4lessIS2_EENS_9allocatorIS2_EEEERNS5_IS7_EEE9__end_capEv
FN:59,_ZNKSt3__114__split_bufferINS_3setI9SituationNS_4lessIS2_EENS_9allocatorIS2_EEEERNS5_IS7_EEE9__end_capEv
FN:87,_ZNSt3__114__split_bufferINS_3setI9SituationNS_4lessIS2_EENS_9allocatorIS2_EEEERNS5_IS7_EEE5clearEv
FN:91,_ZNKSt3__114__split_bufferINS_3setI9SituationNS_4lessIS2_EENS_9allocatorIS2_EEEERNS5_IS7_EEE8capacityEv
FN:140,_ZNSt3__114__split_bufferINS_3setI9SituationNS_4lessIS2_EENS_9allocatorIS2_EEEERNS5_IS7_EEE17__destruct_at_endEPS7_
FN:198,_ZNSt3__114__split_bufferINS_3setI9SituationNS_4lessIS2_EENS_9allocatorIS2_EEEERNS5_IS7_EEE18__construct_at_endEm
FN:293,_ZNSt3__114__split_bufferINS_3setI9SituationNS_4lessIS2_EENS_9allocatorIS2_EEEERNS5_IS7_EEE17__destruct_at_endEPS7_NS_17integral_constantIbLb0EEE
FN:308,_ZNSt3__114__split_bufferINS_3setI9SituationNS_4lessIS2_EENS_9allocatorIS2_EEEERNS5_IS7_EEEC2EmmS9_
FN:308,_ZNSt3__114__split_bufferINS_3setI9SituationNS_4lessIS2_EENS_9allocatorIS2_EEEERNS5_IS7_EEEC1EmmS9_
FN:339,_ZNSt3__114__split_bufferINS_3setI9SituationNS_4lessIS2_EENS_9allocatorIS2_EEEERNS5_IS7_EEED2Ev
FN:339,_ZNSt3__114__split_bufferINS_3setI9SituationNS_4lessIS2_EENS_9allocatorIS2_EEEERNS5_IS7_EEED1Ev
FNDA:43,_ZNSt3__114__split_bufferINS_3setI9SituationNS_4lessIS2_EENS_9allocatorIS2_EEEERNS5_IS7_EEE7__allocEv
FNDA:34,_ZNSt3__114__split_bufferINS_3setI9SituationNS_4lessIS2_EENS_9allocatorIS2_EEEERNS5_IS7_EEE9__end_capEv
FNDA:9,_ZNKSt3__114__split_bufferINS_3setI9SituationNS_4lessIS2_EENS_9allocatorIS2_EEEERNS5_IS7_EEE9__end_capEv
FNDA:17,_ZNSt3__114__split_bufferINS_3setI9SituationNS_4lessIS2_EENS_9allocatorIS2_EEEERNS5_IS7_EEE5clearEv
FNDA:9,_ZNKSt3__114__split_bufferINS_3setI9SituationNS_4lessIS2_EENS_9allocatorIS2_EEEERNS5_IS7_EEE8capacityEv
FNDA:17,_ZNSt3__114__split_bufferINS_3setI9SituationNS_4lessIS2_EENS_9allocatorIS2_EEEERNS5_IS7_EEE17__destruct_at_endEPS7_
FNDA:17,_ZNSt3__114__split_bufferINS_3setI9SituationNS_4lessIS2_EENS_9allocatorIS2_EEEERNS5_IS7_EEE18__construct_at_endEm
FNDA:17,_ZNSt3__114__split_bufferINS_3setI9SituationNS_4lessIS2_EENS_9allocatorIS2_EEEERNS5_IS7_EEE17__destruct_at_endEPS7_NS_17integral_constantIbLb0EEE
FNDA:17,_ZNSt3__114__split_bufferINS_3setI9SituationNS_4lessIS2_EENS_9allocatorIS2_EEEERNS5_IS7_EEEC1EmmS9_
FNDA:17,_ZNSt3__114__split_bufferINS_3setI9SituationNS_4lessIS2_EENS_9allocatorIS2_EEEERNS5_IS7_EEEC2EmmS9_
FNDA:17,_ZNSt3__114__split_bufferINS_3setI9SituationNS_4lessIS2_EENS_9allocatorIS2_EEEERNS5_IS7_EEED1Ev
FNDA:17,_ZNSt3__114__split_bufferINS_3setI9SituationNS_4lessIS2_EENS_9allocatorIS2_EEEERNS5_IS7_EEED2Ev
FNF:12
FNH:12
DA:56,43
DA:58,34
DA:59,9
DA:88,17
DA:91,9
DA:141,17
DA:200,17
DA:201,17
DA:203,138
DA:204,138
DA:205,138
DA:206,276
DA:207,17
DA:295,34
DA:296,0
DA:297,17
DA:309,17
DA:310,34
DA:311,51
DA:312,17
DA:313,17
DA:314,34
DA:340,17
DA:341,17
DA:342,17
DA:343,18
DA:344,34
LF:27
LH:26
end_of_record
SF:/Library/Developer/CommandLineTools/usr/include/c++/v1/__tree
FN:73,_ZNSt3__1L20__tree_is_left_childIPNS_16__tree_node_baseIPvEEEEbT_
FN:139,_ZNSt3__1L10__tree_minIPNS_16__tree_node_baseIPvEEEET_S5_
FN:174,_ZNSt3__1L16__tree_next_iterIPNS_15__tree_end_nodeIPNS_16__tree_node_baseIPvEEEES5_EET_T0_
FN:227,_ZNSt3__118__tree_left_rotateIPNS_16__tree_node_baseIPvEEEEvT_
FN:247,_ZNSt3__119__tree_right_rotateIPNS_16__tree_node_baseIPvEEEEvT_
FN:272,_ZNSt3__127__tree_balance_after_insertIPNS_16__tree_node_baseIPvEEEEvT_S5_
FN:552,_ZNSt3__122__tree_key_value_typesI9SituationE9__get_keyERKS1_
FN:560,_ZNSt3__122__tree_key_value_typesI9SituationE9__get_ptrERS1_
FN:713,_ZNSt3__115__tree_end_nodeIPNS_16__tree_node_baseIPvEEEC2Ev
FN:713,_ZNSt3__115__tree_end_nodeIPNS_16__tree_node_baseIPvEEEC1Ev
FN:731,_ZNKSt3__116__tree_node_baseIPvE15__parent_unsafeEv
FN:734,_ZNSt3__116__tree_node_baseIPvE12__set_parentEPS2_
FN:778,_ZNSt3__122__tree_node_destructorINS_9allocatorINS_11__tree_nodeI9SituationPvEEEEEC2ERS6_b
FN:778,_ZNSt3__122__tree_node_destructorINS_9allocatorINS_11__tree_nodeI9SituationPvEEEEEC1ERS6_b
FN:784,_ZNSt3__122__tree_node_destructorINS_9allocatorINS_11__tree_nodeI9SituationPvEEEEEclEPS5_
FN:865,_ZNSt3__115__tree_iteratorI9SituationPNS_11__tree_nodeIS1_PvEElEC1ES5_
FN:865,_ZNSt3__115__tree_iteratorI9SituationPNS_11__tree_nodeIS1_PvEElEC2ES5_
FN:867,_ZNSt3__115__tree_iteratorI9SituationPNS_11__tree_nodeIS1_PvEElEC2EPNS_15__tree_end_nodeIPNS_16__tree_node_baseIS3_EEEE
FN:867,_ZNSt3__115__tree_iteratorI9SituationPNS_11__tree_nodeIS1_PvEElEC1EPNS_15__tree_end_nodeIPNS_16__tree_node_baseIS3_EEEE
FN:909,_ZNSt3__121__tree_const_iteratorI9SituationPNS_11__tree_nodeIS1_PvEElEC1ENS_15__tree_iteratorIS1_S5_lEE
FN:909,_ZNSt3__121__tree_const_iteratorI9SituationPNS_11__tree_nodeIS1_PvEElEC2ENS_15__tree_iteratorIS1_S5_lEE
FN:912,_ZNKSt3__121__tree_const_iteratorI9SituationPNS_11__tree_nodeIS1_PvEElEdeEv
FN:918,_ZNSt3__121__tree_const_iteratorI9SituationPNS_11__tree_nodeIS1_PvEElEppEv
FN:940,_ZNSt3__1eqERKNS_21__tree_const_iteratorI9SituationPNS_11__tree_nodeIS1_PvEElEES8_
FN:943,_ZNSt3__1neERKNS_21__tree_const_iteratorI9SituationPNS_11__tree_nodeIS1_PvEElEES8_
FN:951,_ZNSt3__121__tree_const_iteratorI9SituationPNS_11__tree_nodeIS1_PvEElEC2EPNS_15__tree_end_nodeIPNS_16__tree_node_baseIS3_EEEE
FN:951,_ZNSt3__121__tree_const_iteratorI9SituationPNS_11__tree_nodeIS1_PvEElEC1EPNS_15__tree_end_nodeIPNS_16__tree_node_baseIS3_EEEE
FN:954,_ZNKSt3__121__tree_const_iteratorI9SituationPNS_11__tree_nodeIS1_PvEElE8__get_npEv
FN:1032,_ZNSt3__16__treeI9SituationNS_4lessIS1_EENS_9allocatorIS1_EEE10__end_nodeEv
FN:1039,_ZNKSt3__16__treeI9SituationNS_4lessIS1_EENS_9allocatorIS1_EEE10__end_nodeEv
FN:1048,_ZNSt3__16__treeI9SituationNS_4lessIS1_EENS_9allocatorIS1_EEE12__node_allocEv
FN:1054,_ZNSt3__16__treeI9SituationNS_4lessIS1_EENS_9allocatorIS1_EEE12__begin_nodeEv
FN:1056,_ZNKSt3__16__treeI9SituationNS_4lessIS1_EENS_9allocatorIS1_EEE12__begin_nodeEv
FN:1063,_ZNSt3__16__treeI9SituationNS_4lessIS1_EENS_9allocatorIS1_EEE4sizeEv
FN:1066,_ZNKSt3__16__treeI9SituationNS_4lessIS1_EENS_9allocatorIS1_EEE4sizeEv
FN:1068,_ZNSt3__16__treeI9SituationNS_4lessIS1_EENS_9allocatorIS1_EEE10value_compEv
FN:1075,_ZNKSt3__16__treeI9SituationNS_4lessIS1_EENS_9allocatorIS1_EEE6__rootEv
FN:1078,_ZNKSt3__16__treeI9SituationNS_4lessIS1_EENS_9allocatorIS1_EEE10__root_ptrEv
FN:1113,_ZNSt3__16__treeI9SituationNS_4lessIS1_EENS_9allocatorIS1_EEE5beginEv
FN:1115,_ZNKSt3__16__treeI9SituationNS_4lessIS1_EENS_9allocatorIS1_EEE5beginEv
FN:1117,_ZNSt3__16__treeI9SituationNS_4lessIS1_EENS_9allocatorIS1_EEE3endEv
FN:1119,_ZNKSt3__16__treeI9SituationNS_4lessIS1_EENS_9allocatorIS1_EEE3endEv
FN:1179,_ZNSt3__16__treeI9SituationNS_4lessIS1_EENS_9allocatorIS1_EEE16__emplace_uniqueIJRK11GrammarRuleRmiEEENS_4pairINS_15__tree_iteratorIS1_PNS_11__tree_nodeIS1_PvEElEEbEEDpOT_
FN:1259,_ZNSt3__16__treeI9SituationNS_4lessIS1_EENS_9allocatorIS1_EEE15__insert_uniqueERKS1_
FN:1275,_ZNSt3__16__treeI9SituationNS_4lessIS1_EENS_9allocatorIS1_EEE15__insert_uniqueEOS1_
FN:1509,_ZNSt3__16__treeI9SituationNS_4lessIS1_EENS_9allocatorIS1_EEEC2ERKS3_
FN:1509,_ZNSt3__16__treeI9SituationNS_4lessIS1_EENS_9allocatorIS1_EEEC1ERKS3_
FN:1697,_ZNSt3__16__treeI9SituationNS_4lessIS1_EENS_9allocatorIS1_EEEC1EOS6_
FN:1697,_ZNSt3__16__treeI9SituationNS_4lessIS1_EENS_9allocatorIS1_EEEC2EOS6_
FN:1827,_ZNSt3__16__treeI9SituationNS_4lessIS1_EENS_9allocatorIS1_EEED1Ev
FN:1827,_ZNSt3__16__treeI9SituationNS_4lessIS1_EENS_9allocatorIS1_EEED2Ev
FN:1836,_ZNSt3__16__treeI9SituationNS_4lessIS1_EENS_9allocatorIS1_EEE7destroyEPNS_11__tree_nodeIS1_PvEE
FN:2008,_ZNSt3__16__treeI9SituationNS_4lessIS1_EENS_9allocatorIS1_EEE12__find_equalIS1_EERPNS_16__tree_node_baseIPvEERPNS_15__tree_end_nodeISB_EERKT_
FN:2113,_ZNSt3__16__treeI9SituationNS_4lessIS1_EENS_9allocatorIS1_EEE16__insert_node_atEPNS_15__tree_end_nodeIPNS_16__tree_node_baseIPvEEEERSB_SB_
FN:2132,_ZNSt3__16__treeI9SituationNS_4lessIS1_EENS_9allocatorIS1_EEE25__emplace_unique_key_argsIS1_JS1_EEENS_4pairINS_15__tree_iteratorIS1_PNS_11__tree_nodeIS1_PvEElEEbEERKT_DpOT0_
FN:2132,_ZNSt3__16__treeI9SituationNS_4lessIS1_EENS_9allocatorIS1_EEE25__emplace_unique_key_argsIS1_JRKS1_EEENS_4pairINS_15__tree_iteratorIS1_PNS_11__tree_nodeIS1_PvEElEEbEERKT_DpOT0_
FN:2196,_ZNSt3__16__treeI9SituationNS_4lessIS1_EENS_9allocatorIS1_EEE16__construct_nodeIJS1_EEENS_10unique_ptrINS_11__tree_nodeIS1_PvEENS_22__tree_node_destructorINS4_ISB_EEEEEEDpOT_
FN:2196,_ZNSt3__16__treeI9SituationNS_4lessIS1_EENS_9allocatorIS1_EEE16__construct_nodeIJRKS1_EEENS_10unique_ptrINS_11__tree_nodeIS1_PvEENS_22__tree_node_destructorINS4_ISD_EEEEEEDpOT_
FN:2196,_ZNSt3__16__treeI9SituationNS_4lessIS1_EENS_9allocatorIS1_EEE16__construct_nodeIJRK11GrammarRuleRmiEEENS_10unique_ptrINS_11__tree_nodeIS1_PvEENS_22__tree_node_destructorINS4_ISF_EEEEEEDpOT_
FN:2211,_ZNSt3__16__treeI9SituationNS_4lessIS1_EENS_9allocatorIS1_EEE21__emplace_unique_implIJRK11GrammarRuleRmiEEENS_4pairINS_15__tree_iteratorIS1_PNS_11__tree_nodeIS1_PvEElEEbEEDpOT_
FNDA:23272,_ZNSt3__1L20__tree_is_left_childIPNS_16__tree_node_baseIPvEEEEbT_
FNDA:8828,_ZNSt3__1L10__tree_minIPNS_16__tree_node_baseIPvEEEET_S5_
FNDA:20551,_ZNSt3__1L16__tree_next_iterIPNS_15__tree_end_nodeIPNS_16__tree_node_baseIPvEEEES5_EET_T0_
FNDA:397,_ZNSt3__118__tree_left_rotateIPNS_16__tree_node_baseIPvEEEEvT_
FNDA:431,_ZNSt3__119__tree_right_rotateIPNS_16__tree_node_baseIPvEEEEvT_
FNDA:1985,_ZNSt3__127__tree_balance_after_insertIPNS_16__tree_node_baseIPvEEEEvT_S5_
FNDA:2071,_ZNSt3__122__tree_key_value_typesI9SituationE9__get_keyERKS1_
FNDA:15017,_ZNSt3__122__tree_key_value_typesI9SituationE9__get_ptrERS1_
FNDA:268,_ZNSt3__115__tree_end_nodeIPNS_16__tree_node_baseIPvEEEC1Ev
FNDA:268,_ZNSt3__115__tree_end_nodeIPNS_16__tree_node_baseIPvEEEC2Ev
FNDA:17220,_ZNKSt3__116__tree_node_baseIPvE15__parent_unsafeEv
FNDA:957,_ZNSt3__116__tree_node_baseIPvE12__set_parentEPS2_
FNDA:8501,_ZNSt3__122__tree_node_destructorINS_9allocatorINS_11__tree_nodeI9SituationPvEEEEEC1ERS6_b
FNDA:8501,_ZNSt3__122__tree_node_destructorINS_9allocatorINS_11__tree_nodeI9SituationPvEEEEEC2ERS6_b
FNDA:6516,_ZNSt3__122__tree_node_destructorINS_9allocatorINS_11__tree_nodeI9SituationPvEEEEEclEPS5_
FNDA:9670,_ZNSt3__115__tree_iteratorI9SituationPNS_11__tree_nodeIS1_PvEElEC1ES5_
FNDA:9670,_ZNSt3__115__tree_iteratorI9SituationPNS_11__tree_nodeIS1_PvEElEC2ES5_
FNDA:5710,_ZNSt3__115__tree_iteratorI9SituationPNS_11__tree_nodeIS1_PvEElEC1EPNS_15__tree_end_nodeIPNS_16__tree_node_baseIS3_EEEE
FNDA:5710,_ZNSt3__115__tree_iteratorI9SituationPNS_11__tree_nodeIS1_PvEElEC2EPNS_15__tree_end_nodeIPNS_16__tree_node_baseIS3_EEEE
FNDA:15380,_ZNSt3__121__tree_const_iteratorI9SituationPNS_11__tree_nodeIS1_PvEElEC1ENS_15__tree_iteratorIS1_S5_lEE
FNDA:15380,_ZNSt3__121__tree_const_iteratorI9SituationPNS_11__tree_nodeIS1_PvEElEC2ENS_15__tree_iteratorIS1_S5_lEE
FNDA:20579,_ZNKSt3__121__tree_const_iteratorI9SituationPNS_11__tree_nodeIS1_PvEElEdeEv
FNDA:20551,_ZNSt3__121__tree_const_iteratorI9SituationPNS_11__tree_nodeIS1_PvEElEppEv
FNDA:23500,_ZNSt3__1eqERKNS_21__tree_const_iteratorI9SituationPNS_11__tree_nodeIS1_PvEElEES8_
FNDA:23500,_ZNSt3__1neERKNS_21__tree_const_iteratorI9SituationPNS_11__tree_nodeIS1_PvEElEES8_
FNDA:141,_ZNSt3__121__tree_const_iteratorI9SituationPNS_11__tree_nodeIS1_PvEElEC1EPNS_15__tree_end_nodeIPNS_16__tree_node_baseIS3_EEEE
FNDA:141,_ZNSt3__121__tree_const_iteratorI9SituationPNS_11__tree_nodeIS1_PvEElEC2EPNS_15__tree_end_nodeIPNS_16__tree_node_baseIS3_EEEE
FNDA:20579,_ZNKSt3__121__tree_const_iteratorI9SituationPNS_11__tree_nodeIS1_PvEElE8__get_npEv
FNDA:5352,_ZNSt3__16__treeI9SituationNS_4lessIS1_EENS_9allocatorIS1_EEE10__end_nodeEv
FNDA:19434,_ZNKSt3__16__treeI9SituationNS_4lessIS1_EENS_9allocatorIS1_EEE10__end_nodeEv
FNDA:8501,_ZNSt3__16__treeI9SituationNS_4lessIS1_EENS_9allocatorIS1_EEE12__node_allocEv
FNDA:6444,_ZNSt3__16__treeI9SituationNS_4lessIS1_EENS_9allocatorIS1_EEE12__begin_nodeEv
FNDA:47,_ZNKSt3__16__treeI9SituationNS_4lessIS1_EENS_9allocatorIS1_EEE12__begin_nodeEv
FNDA:1985,_ZNSt3__16__treeI9SituationNS_4lessIS1_EENS_9allocatorIS1_EEE4sizeEv
FNDA:1528,_ZNKSt3__16__treeI9SituationNS_4lessIS1_EENS_9allocatorIS1_EEE4sizeEv
FNDA:50945,_ZNSt3__16__treeI9SituationNS_4lessIS1_EENS_9allocatorIS1_EEE10value_compEv
FNDA:9670,_ZNKSt3__16__treeI9SituationNS_4lessIS1_EENS_9allocatorIS1_EEE6__rootEv
FNDA:9670,_ZNKSt3__16__treeI9SituationNS_4lessIS1_EENS_9allocatorIS1_EEE10__root_ptrEv
FNDA:2855,_ZNSt3__16__treeI9SituationNS_4lessIS1_EENS_9allocatorIS1_EEE5beginEv
FNDA:47,_ZNKSt3__16__treeI9SituationNS_4lessIS1_EENS_9allocatorIS1_EEE5beginEv
FNDA:2855,_ZNSt3__16__treeI9SituationNS_4lessIS1_EENS_9allocatorIS1_EEE3endEv
FNDA:94,_ZNKSt3__16__treeI9SituationNS_4lessIS1_EENS_9allocatorIS1_EEE3endEv
FNDA:7599,_ZNSt3__16__treeI9SituationNS_4lessIS1_EENS_9allocatorIS1_EEE16__emplace_uniqueIJRK11GrammarRuleRmiEEENS_4pairINS_15__tree_iteratorIS1_PNS_11__tree_nodeIS1_PvEElEEbEEDpOT_
FNDA:47,_ZNSt3__16__treeI9SituationNS_4lessIS1_EENS_9allocatorIS1_EEE15__insert_uniqueERKS1_
FNDA:2024,_ZNSt3__16__treeI9SituationNS_4lessIS1_EENS_9allocatorIS1_EEE15__insert_uniqueEOS1_
FNDA:268,_ZNSt3__16__treeI9SituationNS_4lessIS1_EENS_9allocatorIS1_EEEC1ERKS3_
FNDA:268,_ZNSt3__16__treeI9SituationNS_4lessIS1_EENS_9allocatorIS1_EEEC2ERKS3_
FNDA:0,_ZNSt3__16__treeI9SituationNS_4lessIS1_EENS_9allocatorIS1_EEEC1EOS6_
FNDA:0,_ZNSt3__16__treeI9SituationNS_4lessIS1_EENS_9allocatorIS1_EEEC2EOS6_
FNDA:0,_ZNSt3__16__treeI9SituationNS_4lessIS1_EENS_9allocatorIS1_EEED1Ev
FNDA:0,_ZNSt3__16__treeI9SituationNS_4lessIS1_EENS_9allocatorIS1_EEED2Ev
FNDA:0,_ZNSt3__16__treeI9SituationNS_4lessIS1_EENS_9allocatorIS1_EEE7destroyEPNS_11__tree_nodeIS1_PvEE
FNDA:9670,_ZNSt3__16__treeI9SituationNS_4lessIS1_EENS_9allocatorIS1_EEE12__find_equalIS1_EERPNS_16__tree_node_baseIPvEERPNS_15__tree_end_nodeISB_EERKT_
FNDA:1985,_ZNSt3__16__treeI9SituationNS_4lessIS1_EENS_9allocatorIS1_EEE16__insert_node_atEPNS_15__tree_end_nodeIPNS_16__tree_node_baseIPvEEEERSB_SB_
FNDA:47,_ZNSt3__16__treeI9SituationNS_4lessIS1_EENS_9allocatorIS1_EEE25__emplace_unique_key_argsIS1_JRKS1_EEENS_4pairINS_15__tree_iteratorIS1_PNS_11__tree_nodeIS1_PvEElEEbEERKT_DpOT0_
FNDA:2024,_ZNSt3__16__treeI9SituationNS_4lessIS1_EENS_9allocatorIS1_EEE25__emplace_unique_key_argsIS1_JS1_EEENS_4pairINS_15__tree_iteratorIS1_PNS_11__tree_nodeIS1_PvEElEEbEERKT_DpOT0_
FNDA:47,_ZNSt3__16__treeI9SituationNS_4lessIS1_EENS_9allocatorIS1_EEE16__construct_nodeIJRKS1_EEENS_10unique_ptrINS_11__tree_nodeIS1_PvEENS_22__tree_node_destructorINS4_ISD_EEEEEEDpOT_
FNDA:855,_ZNSt3__16__treeI9SituationNS_4lessIS1_EENS_9allocatorIS1_EEE16__construct_nodeIJS1_EEENS_10unique_ptrINS_11__tree_nodeIS1_PvEENS_22__tree_node_destructorINS4_ISB_EEEEEEDpOT_
FNDA:7599,_ZNSt3__16__treeI9SituationNS_4lessIS1_EENS_9allocatorIS1_EEE16__construct_nodeIJRK11GrammarRuleRmiEEENS_10unique_ptrINS_11__tree_nodeIS1_PvEENS_22__tree_node_destructorINS4_ISF_EEEEEEDpOT_
FNDA:7599,_ZNSt3__16__treeI9SituationNS_4lessIS1_EENS_9allocatorIS1_EEE21__emplace_unique_implIJRK11GrammarRuleRmiEEENS_4pairINS_15__tree_iteratorIS1_PNS_11__tree_nodeIS1_PvEElEEbEEDpOT_
FNF:60
FNH:55
DA:75,23272
DA:141,25916
DA:142,4130
DA:143,8828
DA:176,20551
DA:177,8828
DA:178,41242
DA:179,17796
DA:180,11723
DA:181,20551
DA:229,397
DA:230,397
DA:231,397
DA:232,70
DA:233,397
DA:234,397
DA:235,340
DA:237,114
DA:238,397
DA:239,397
DA:240,397
DA:249,431
DA:250,431
DA:251,431
DA:252,188
DA:253,431
DA:254,431
DA:255,231
DA:257,400
DA:258,431
DA:259,431
DA:260,431
DA:274,1985
DA:275,12226
DA:278,2492
DA:280,2094
DA:281,1165
DA:283,764
DA:284,382
DA:285,764
DA:286,382
DA:287,382
DA:288,382
DA:291,316
DA:293,272
DA:294,136
DA:295,136
DA:296,632
DA:297,316
DA:298,632
DA:299,316
DA:300,316
DA:301,316
DA:303,382
DA:306,1096
DA:307,847
DA:309,574
DA:310,287
DA:311,574
DA:312,287
DA:313,287
DA:314,287
DA:317,261
DA:319,230
DA:320,115
DA:321,115
DA:322,522
DA:323,261
DA:324,522
DA:325,261
DA:326,261
DA:327,261
DA:331,1985
DA:553,2071
DA:561,15017
DA:713,536
DA:731,17220
DA:735,957
DA:736,957
DA:779,8501
DA:780,8501
DA:781,17002
DA:786,6516
DA:787,19548
DA:788,6516
DA:789,6516
DA:790,6516
DA:865,19340
DA:867,11420
DA:910,30760
DA:913,20579
DA:919,20551
DA:920,20551
DA:921,20551
DA:941,23500
DA:944,23500
DA:952,282
DA:954,20579
DA:1034,5352
DA:1035,5352
DA:1041,19434
DA:1042,19434
DA:1043,19434
DA:1048,8501
DA:1054,6444
DA:1056,47
DA:1063,1985
DA:1066,1528
DA:1068,50945
DA:1076,9670
DA:1079,9670
DA:1085,268
DA:1113,2855
DA:1115,47
DA:1117,2855
DA:1119,94
DA:1180,7599
DA:1260,47
DA:1276,2024
DA:1513,268
DA:1514,268
DA:1515,268
DA:1516,536
DA:1701,0
DA:1702,0
DA:1703,0
DA:1704,0
DA:1705,0
DA:1706,0
DA:1709,0
DA:1710,0
DA:1711,0
DA:1712,0
DA:1714,0
DA:1828,0
DA:1831,0
DA:1832,0
DA:1838,0
DA:1840,0
DA:1841,0
DA:1842,0
DA:1843,0
DA:1844,0
DA:1845,0
DA:1846,0
DA:2011,9670
DA:2012,9670
DA:2013,9670
DA:2015,34116
DA:2017,34116
DA:2019,17287
DA:2020,16398
DA:2021,16398
DA:2022,16398
DA:2023,889
DA:2024,889
DA:2026,16398
DA:2027,16829
DA:2029,9144
DA:2030,8292
DA:2031,8292
DA:2032,8292
DA:2033,852
DA:2034,852
DA:2036,8292
DA:2039,7685
DA:2040,7685
DA:2044,244
DA:2045,244
DA:2046,9670
DA:2117,1985
DA:2118,1985
DA:2119,1985
DA:2121,1985
DA:2122,1985
DA:2123,668
DA:2124,1985
DA:2125,1985
DA:2126,1985
DA:2141,2071
DA:2142,2071
DA:2143,2071
DA:2144,2071
DA:2147,902
DA:2151,902
DA:2152,902
DA:2153,902
DA:2154,902
DA:2155,2071
DA:2156,0
DA:2200,8501
DA:2201,8501
DA:2202,17002
DA:2203,8501
DA:2204,8501
DA:2205,17002
DA:2213,7599
DA:2215,15198
DA:2216,7599
DA:2217,7599
DA:2218,7599
DA:2220,1083
DA:2221,1083
DA:2222,1083
DA:2223,1083
DA:2224,7599
DA:2225,7599
LF:207
LH:184
end_of_record
SF:/Library/Developer/CommandLineTools/usr/include/c++/v1/algorithm
FN:721,_ZNKSt3__16__lessImmEclERKmS3_
FN:996,_ZNSt3__1L4findINS_21__tree_const_iteratorI9SituationPNS_11__tree_nodeIS2_PvEElEES2_EET_S8_S8_RKT0_
FN:1691,_ZNSt3__1L13__unwrap_iterIPN11GrammarRule6SymbolEEET_S4_
FN:1691,_ZNSt3__1L13__unwrap_iterIP11GrammarRuleEET_S3_
FN:1741,_ZNSt3__1L6__copyIP11GrammarRuleS2_EET0_T_S4_S3_
FN:1756,_ZNSt3__1L6__copyIN11GrammarRule6SymbolES2_EENS_9enable_ifIXaasr7is_sameINS_12remove_constIT_E4typeET0_EE5valuesr28is_trivially_copy_assignableIS8_EE5valueEPS8_E4typeEPS5_SC_S9_
FN:1767,_ZNSt3__1L4copyIPN11GrammarRule6SymbolES3_EET0_T_S5_S4_
FN:1767,_ZNSt3__1L4copyIP11GrammarRuleS2_EET0_T_S4_S3_
FN:2560,_ZNSt3__1L3minImNS_6__lessImmEEEERKT_S5_S5_T0_
FN:2568,_ZNSt3__1L3minImEERKT_S3_S3_
FN:2625,_ZNSt3__1L3maxImNS_6__lessImmEEEERKT_S5_S5_T0_
FN:2633,_ZNSt3__1L3maxImEERKT_S3_S3_
FNDA:42,_ZNKSt3__16__lessImmEclERKmS3_
FNDA:47,_ZNSt3__1L4findINS_21__tree_const_iteratorI9SituationPNS_11__tree_nodeIS2_PvEElEES2_EET_S8_S8_RKT0_
FNDA:117,_ZNSt3__1L13__unwrap_iterIP11GrammarRuleEET_S3_
FNDA:0,_ZNSt3__1L13__unwrap_iterIPN11GrammarRule6SymbolEEET_S4_
FNDA:39,_ZNSt3__1L6__copyIP11GrammarRuleS2_EET0_T_S4_S3_
FNDA:0,_ZNSt3__1L6__copyIN11GrammarRule6SymbolES2_EENS_9enable_ifIXaasr7is_sameINS_12remove_constIT_E4typeET0_EE5valuesr28is_trivially_copy_assignableIS8_EE5valueEPS8_E4typeEPS5_SC_S9_
FNDA:39,_ZNSt3__1L4copyIP11GrammarRuleS2_EET0_T_S4_S3_
FNDA:0,_ZNSt3__1L4copyIPN11GrammarRule6SymbolES3_EET0_T_S5_S4_
FNDA:17,_ZNSt3__1L3minImNS_6__lessImmEEEERKT_S5_S5_T0_
FNDA:17,_ZNSt3__1L3minImEERKT_S3_S3_
FNDA:25,_ZNSt3__1L3maxImNS_6__lessImmEEEERKT_S5_S5_T0_
FNDA:25,_ZNSt3__1L3maxImEERKT_S3_S3_
FNF:12
FNH:9
DA:721,42
DA:998,234
DA:999,168
DA:1000,28
DA:1001,47
DA:1693,117
DA:1743,470
DA:1744,196
DA:1745,39
DA:1758,0
DA:1759,0
DA:1760,0
DA:1761,0
DA:1769,39
DA:2562,51
DA:2570,17
DA:2627,75
DA:2635,25
LF:18
LH:14
end_of_record
SF:/Library/Developer/CommandLineTools/usr/include/c++/v1/iterator
FN:554,_ZNSt3__1L9__advanceIP11GrammarRuleEEvRT_NS_15iterator_traitsIS3_E15difference_typeENS_26random_access_iterator_tagE
FN:554,_ZNSt3__1L9__advanceIPN11GrammarRule6SymbolEEEvRT_NS_15iterator_traitsIS4_E15difference_typeENS_26random_access_iterator_tagE
FN:562,_ZNSt3__1L7advanceIPN11GrammarRule6SymbolEEEvRT_NS_15iterator_traitsIS4_E15difference_typeE
FN:562,_ZNSt3__1L7advanceIP11GrammarRuleEEvRT_NS_15iterator_traitsIS3_E15difference_typeE
FN:582,_ZNSt3__1L10__distanceIPN11GrammarRule6SymbolEEENS_15iterator_traitsIT_E15difference_typeES5_S5_NS_26random_access_iterator_tagE
FN:582,_ZNSt3__1L10__distanceIP11GrammarRuleEENS_15iterator_traitsIT_E15difference_typeES4_S4_NS_26random_access_iterator_tagE
FN:590,_ZNSt3__1L8distanceIPN11GrammarRule6SymbolEEENS_15iterator_traitsIT_E15difference_typeES5_S5_
FN:590,_ZNSt3__1L8distanceIP11GrammarRuleEENS_15iterator_traitsIT_E15difference_typeES4_S4_
FN:1350,_ZNKSt3__111__wrap_iterIP11GrammarRuleEdeEv
FN:1366,_ZNSt3__111__wrap_iterIP11GrammarRuleEppEv
FN:1413,_ZNKSt3__111__wrap_iterIP11GrammarRuleE4baseEv
FN:1422,_ZNSt3__111__wrap_iterIP11GrammarRuleEC1ES2_
FN:1422,_ZNSt3__111__wrap_iterIP11GrammarRuleEC2ES2_
FN:1507,_ZNSt3__1eqIP11GrammarRuleS2_EEbRKNS_11__wrap_iterIT_EERKNS3_IT0_EE
FN:1559,_ZNSt3__1neIP11GrammarRuleEEbRKNS_11__wrap_iterIT_EES7_
FNDA:0,_ZNSt3__1L9__advanceIP11GrammarRuleEEvRT_NS_15iterator_traitsIS3_E15difference_typeENS_26random_access_iterator_tagE
FNDA:0,_ZNSt3__1L9__advanceIPN11GrammarRule6SymbolEEEvRT_NS_15iterator_traitsIS4_E15difference_typeENS_26random_access_iterator_tagE
FNDA:0,_ZNSt3__1L7advanceIP11GrammarRuleEEvRT_NS_15iterator_traitsIS3_E15difference_typeE
FNDA:0,_ZNSt3__1L7advanceIPN11GrammarRule6SymbolEEEvRT_NS_15iterator_traitsIS4_E15difference_typeE
FNDA:47,_ZNSt3__1L10__distanceIP11GrammarRuleEENS_15iterator_traitsIT_E15difference_typeES4_S4_NS_26random_access_iterator_tagE
FNDA:0,_ZNSt3__1L10__distanceIPN11GrammarRule6SymbolEEENS_15iterator_traitsIT_E15difference_typeES5_S5_NS_26random_access_iterator_tagE
FNDA:47,_ZNSt3__1L8distanceIP11GrammarRuleEENS_15iterator_traitsIT_E15difference_typeES4_S4_
FNDA:0,_ZNSt3__1L8distanceIPN11GrammarRule6SymbolEEENS_15iterator_traitsIT_E15difference_typeES5_S5_
FNDA:11689,_ZNKSt3__111__wrap_iterIP11GrammarRuleEdeEv
FNDA:11689,_ZNSt3__111__wrap_iterIP11GrammarRuleEppEv
FNDA:26392,_ZNKSt3__111__wrap_iterIP11GrammarRuleE4baseEv
FNDA:3014,_ZNSt3__111__wrap_iterIP11GrammarRuleEC1ES2_
FNDA:3014,_ZNSt3__111__wrap_iterIP11GrammarRuleEC2ES2_
FNDA:13196,_ZNSt3__1eqIP11GrammarRuleS2_EEbRKNS_11__wrap_iterIT_EERKNS3_IT0_EE
FNDA:13196,_ZNSt3__1neIP11GrammarRuleEEbRKNS_11__wrap_iterIT_EES7_
FNF:15
FNH:9
DA:557,0
DA:558,0
DA:565,0
DA:566,0
DA:584,47
DA:592,47
DA:1356,11689
DA:1372,11689
DA:1373,11689
DA:1413,26392
DA:1422,6028
DA:1509,13196
DA:1561,13196
LF:13
LH:9
end_of_record
SF:/Library/Developer/CommandLineTools/usr/include/c++/v1/limits
FN:213,_ZNSt3__123__libcpp_numeric_limitsIlLb1EE3maxEv
FN:450,_ZNSt3__114numeric_limitsIlE3maxEv
FNDA:17,_ZNSt3__123__libcpp_numeric_limitsIlLb1EE3maxEv
FNDA:17,_ZNSt3__114numeric_limitsIlE3maxEv
FNF:2
FNH:2
DA:213,34
DA:450,34
LF:2
LH:2
end_of_record
SF:/Library/Developer/CommandLineTools/usr/include/c++/v1/memory
FN:987,_ZNSt3__114pointer_traitsIPcE10pointer_toERc
FN:987,_ZNSt3__114pointer_traitsIPNS_15__tree_end_nodeIPNS_16__tree_node_baseIPvEEEEE10pointer_toERS6_
FN:1105,_ZNSt3__1L16__to_raw_pointerI11GrammarRuleEEPT_S3_
FN:1105,_ZNSt3__1L16__to_raw_pointerIN11GrammarRule6SymbolEEEPT_S4_
FN:1105,_ZNSt3__1L16__to_raw_pointerINS_3setI9SituationNS_4lessIS2_EENS_9allocatorIS2_EEEEEEPT_S9_
FN:1545,_ZNSt3__116allocator_traitsINS_9allocatorIN11GrammarRule6SymbolEEEE8allocateERS4_m
FN:1545,_ZNSt3__116allocator_traitsINS_9allocatorI11GrammarRuleEEE8allocateERS3_m
FN:1545,_ZNSt3__116allocator_traitsINS_9allocatorINS_3setI9SituationNS_4lessIS3_EENS1_IS3_EEEEEEE8allocateERS8_m
FN:1545,_ZNSt3__116allocator_traitsINS_9allocatorINS_11__tree_nodeI9SituationPvEEEEE8allocateERS6_m
FN:1553,_ZNSt3__116allocator_traitsINS_9allocatorINS_3setI9SituationNS_4lessIS3_EENS1_IS3_EEEEEEE10deallocateERS8_PS7_m
FN:1553,_ZNSt3__116allocator_traitsINS_9allocatorI11GrammarRuleEEE10deallocateERS3_PS2_m
FN:1553,_ZNSt3__116allocator_traitsINS_9allocatorIN11GrammarRule6SymbolEEEE10deallocateERS4_PS3_m
FN:1553,_ZNSt3__116allocator_traitsINS_9allocatorINS_11__tree_nodeI9SituationPvEEEEE10deallocateERS6_PS5_m
FN:1559,_ZNSt3__116allocator_traitsINS_9allocatorINS_11__tree_nodeI9SituationPvEEEEE9constructIS3_JS3_EEEvRS6_PT_DpOT0_
FN:1559,_ZNSt3__116allocator_traitsINS_9allocatorI11GrammarRuleEEE9constructIS2_JRS2_EEEvRS3_PT_DpOT0_
FN:1559,_ZNSt3__116allocator_traitsINS_9allocatorINS_11__tree_nodeI9SituationPvEEEEE9constructIS3_JRKS3_EEEvRS6_PT_DpOT0_
FN:1559,_ZNSt3__116allocator_traitsINS_9allocatorINS_3setI9SituationNS_4lessIS3_EENS1_IS3_EEEEEEE9constructIS7_JS7_EEEvRS8_PT_DpOT0_
FN:1559,_ZNSt3__116allocator_traitsINS_9allocatorINS_3setI9SituationNS_4lessIS3_EENS1_IS3_EEEEEEE9constructIS7_JEEEvRS8_PT_DpOT0_
FN:1559,_ZNSt3__116allocator_traitsINS_9allocatorINS_11__tree_nodeI9SituationPvEEEEE9constructIS3_JRK11GrammarRuleRmiEEEvRS6_PT_DpOT0_
FN:1594,_ZNSt3__116allocator_traitsINS_9allocatorIN11GrammarRule6SymbolEEEE7destroyIS3_EEvRS4_PT_
FN:1594,_ZNSt3__116allocator_traitsINS_9allocatorI11GrammarRuleEEE7destroyIS2_EEvRS3_PT_
FN:1594,_ZNSt3__116allocator_traitsINS_9allocatorINS_11__tree_nodeI9SituationPvEEEEE7destroyIS3_EEvRS6_PT_
FN:1594,_ZNSt3__116allocator_traitsINS_9allocatorINS_3setI9SituationNS_4lessIS3_EENS1_IS3_EEEEEEE7destroyIS7_EEvRS8_PT_
FN:1598,_ZNSt3__116allocator_traitsINS_9allocatorINS_3setI9SituationNS_4lessIS3_EENS1_IS3_EEEEEEE8max_sizeERKS8_
FN:1598,_ZNSt3__116allocator_traitsINS_9allocatorI11GrammarRuleEEE8max_sizeERKS3_
FN:1598,_ZNSt3__116allocator_traitsINS_9allocatorIN11GrammarRule6SymbolEEEE8max_sizeERKS4_
FN:1603,_ZNSt3__116allocator_traitsINS_9allocatorIN11GrammarRule6SymbolEEEE37select_on_container_copy_constructionERKS4_
FN:1642,_ZNSt3__116allocator_traitsINS_9allocatorI11GrammarRuleEEE25__construct_range_forwardIPS2_S6_EEvRS3_T_S8_RT0_
FN:1661,_ZNSt3__116allocator_traitsINS_9allocatorIN11GrammarRule6SymbolEEEE25__construct_range_forwardIS3_S3_S3_S3_EENS_9enable_ifIXaaaasr31is_trivially_move_constructibleIT0_EE5valuesr7is_sameIT1_T2_EE5valueooL_ZNS_17integral_constantIbLb1EE5valueEEntsr15__has_constructIS4_PS8_RT_EE5valueEvE4typeERS4_PSE_SJ_RSD_
FN:1675,_ZNSt3__116allocator_traitsINS_9allocatorINS_3setI9SituationNS_4lessIS3_EENS1_IS3_EEEEEEE20__construct_backwardIPS7_EEvRS8_T_SD_RSD_
FN:1716,_ZNSt3__116allocator_traitsINS_9allocatorINS_11__tree_nodeI9SituationPvEEEEE11__constructIS3_JRKS3_EEEvNS_17integral_constantIbLb1EEERS6_PT_DpOT0_
FN:1716,_ZNSt3__116allocator_traitsINS_9allocatorINS_11__tree_nodeI9SituationPvEEEEE11__constructIS3_JRK11GrammarRuleRmiEEEvNS_17integral_constantIbLb1EEERS6_PT_DpOT0_
FN:1716,_ZNSt3__116allocator_traitsINS_9allocatorINS_11__tree_nodeI9SituationPvEEEEE11__constructIS3_JS3_EEEvNS_17integral_constantIbLb1EEERS6_PT_DpOT0_
FN:1716,_ZNSt3__116allocator_traitsINS_9allocatorI11GrammarRuleEEE11__constructIS2_JRS2_EEEvNS_17integral_constantIbLb1EEERS3_PT_DpOT0_
FN:1716,_ZNSt3__116allocator_traitsINS_9allocatorINS_3setI9SituationNS_4lessIS3_EENS1_IS3_EEEEEEE11__constructIS7_JS7_EEEvNS_17integral_constantIbLb1EEERS8_PT_DpOT0_
FN:1716,_ZNSt3__116allocator_traitsINS_9allocatorINS_3setI9SituationNS_4lessIS3_EENS1_IS3_EEEEEEE11__constructIS7_JEEEvNS_17integral_constantIbLb1EEERS8_PT_DpOT0_
FN:1741,_ZNSt3__116allocator_traitsINS_9allocatorINS_3setI9SituationNS_4lessIS3_EENS1_IS3_EEEEEEE9__destroyIS7_EEvNS_17integral_constantIbLb1EEERS8_PT_
FN:1741,_ZNSt3__116allocator_traitsINS_9allocatorIN11GrammarRule6SymbolEEEE9__destroyIS3_EEvNS_17integral_constantIbLb1EEERS4_PT_
FN:1741,_ZNSt3__116allocator_traitsINS_9allocatorI11GrammarRuleEEE9__destroyIS2_EEvNS_17integral_constantIbLb1EEERS3_PT_
FN:1745,_ZNSt3__116allocator_traitsINS_9allocatorINS_11__tree_nodeI9SituationPvEEEEE9__destroyIS3_EEvNS_17integral_constantIbLb0EEERS6_PT_
FN:1751,_ZNSt3__116allocator_traitsINS_9allocatorIN11GrammarRule6SymbolEEEE10__max_sizeENS_17integral_constantIbLb1EEERKS4_
FN:1751,_ZNSt3__116allocator_traitsINS_9allocatorI11GrammarRuleEEE10__max_sizeENS_17integral_constantIbLb1EEERKS3_
FN:1751,_ZNSt3__116allocator_traitsINS_9allocatorINS_3setI9SituationNS_4lessIS3_EENS1_IS3_EEEEEEE10__max_sizeENS_17integral_constantIbLb1EEERKS8_
FN:1763,_ZNSt3__116allocator_traitsINS_9allocatorIN11GrammarRule6SymbolEEEE39__select_on_container_copy_constructionENS_17integral_constantIbLb0EEERKS4_
FN:1797,_ZNSt3__19allocatorINS_11__tree_nodeI9SituationPvEEEC2Ev
FN:1797,_ZNSt3__19allocatorIcEC2Ev
FN:1808,_ZNSt3__19allocatorINS_3setI9SituationNS_4lessIS2_EENS0_IS2_EEEEE8allocateEmPKv
FN:1808,_ZNSt3__19allocatorINS_11__tree_nodeI9SituationPvEEE8allocateEmPKv
FN:1808,_ZNSt3__19allocatorI11GrammarRuleE8allocateEmPKv
FN:1808,_ZNSt3__19allocatorIN11GrammarRule6SymbolEE8allocateEmPKv
FN:1815,_ZNSt3__19allocatorINS_3setI9SituationNS_4lessIS2_EENS0_IS2_EEEEE10deallocateEPS6_m
FN:1815,_ZNSt3__19allocatorINS_11__tree_nodeI9SituationPvEEE10deallocateEPS4_m
FN:1815,_ZNSt3__19allocatorIN11GrammarRule6SymbolEE10deallocateEPS2_m
FN:1815,_ZNSt3__19allocatorI11GrammarRuleE10deallocateEPS1_m
FN:1817,_ZNKSt3__19allocatorIN11GrammarRule6SymbolEE8max_sizeEv
FN:1817,_ZNKSt3__19allocatorI11GrammarRuleE8max_sizeEv
FN:1817,_ZNKSt3__19allocatorINS_3setI9SituationNS_4lessIS2_EENS0_IS2_EEEEE8max_sizeEv
FN:1817,_ZNKSt3__19allocatorINS_11__tree_nodeI9SituationPvEEE8max_sizeEv
FN:1823,_ZNSt3__19allocatorINS_3setI9SituationNS_4lessIS2_EENS0_IS2_EEEEE9constructIS6_JS6_EEEvPT_DpOT0_
FN:1823,_ZNSt3__19allocatorINS_3setI9SituationNS_4lessIS2_EENS0_IS2_EEEEE9constructIS6_JEEEvPT_DpOT0_
FN:1823,_ZNSt3__19allocatorINS_11__tree_nodeI9SituationPvEEE9constructIS2_JRKS2_EEEvPT_DpOT0_
FN:1823,_ZNSt3__19allocatorINS_11__tree_nodeI9SituationPvEEE9constructIS2_JS2_EEEvPT_DpOT0_
FN:1823,_ZNSt3__19allocatorINS_11__tree_nodeI9SituationPvEEE9constructIS2_JRK11GrammarRuleRmiEEEvPT_DpOT0_
FN:1823,_ZNSt3__19allocatorI11GrammarRuleE9constructIS1_JRS1_EEEvPT_DpOT0_
FN:1880,_ZNSt3__19allocatorI11GrammarRuleE7destroyEPS1_
FN:1880,_ZNSt3__19allocatorIN11GrammarRule6SymbolEE7destroyEPS2_
FN:1880,_ZNSt3__19allocatorINS_3setI9SituationNS_4lessIS2_EENS0_IS2_EEEEE7destroyEPS6_
FN:2139,_ZNSt3__122__compressed_pair_elemINS_15__tree_end_nodeIPNS_16__tree_node_baseIPvEEEELi0ELb0EEC2Ev
FN:2139,_ZNSt3__122__compressed_pair_elemINS_12basic_stringIcNS_11char_traitsIcEENS_9allocatorIcEEE5__repELi0ELb0EEC2Ev
FN:2146,_ZNSt3__122__compressed_pair_elemINS_22__tree_node_destructorINS_9allocatorINS_11__tree_nodeI9SituationPvEEEEEELi1ELb0EEC2IS8_vEEOT_
FN:2146,_ZNSt3__122__compressed_pair_elemIPN11GrammarRule6SymbolELi0ELb0EEC2IDnvEEOT_
FN:2146,_ZNSt3__122__compressed_pair_elemIPNS_11__tree_nodeI9SituationPvEELi0ELb0EEC2IRS5_vEEOT_
FN:2146,_ZNSt3__122__compressed_pair_elemIRNS_9allocatorINS_3setI9SituationNS_4lessIS3_EENS1_IS3_EEEEEELi1ELb0EEC2IS9_vEEOT_
FN:2146,_ZNSt3__122__compressed_pair_elemIPNS_3setI9SituationNS_4lessIS2_EENS_9allocatorIS2_EEEELi0ELb0EEC2IDnvEEOT_
FN:2146,_ZNSt3__122__compressed_pair_elemImLi0ELb0EEC2IivEEOT_
FN:2160,_ZNSt3__122__compressed_pair_elemINS_12basic_stringIcNS_11char_traitsIcEENS_9allocatorIcEEE5__repELi0ELb0EE5__getEv
FN:2160,_ZNSt3__122__compressed_pair_elemImLi0ELb0EE5__getEv
FN:2160,_ZNSt3__122__compressed_pair_elemIRNS_9allocatorINS_3setI9SituationNS_4lessIS3_EENS1_IS3_EEEEEELi1ELb0EE5__getEv
FN:2160,_ZNSt3__122__compressed_pair_elemIPNS_3setI9SituationNS_4lessIS2_EENS_9allocatorIS2_EEEELi0ELb0EE5__getEv
FN:2160,_ZNSt3__122__compressed_pair_elemIPNS_11__tree_nodeI9SituationPvEELi0ELb0EE5__getEv
FN:2160,_ZNSt3__122__compressed_pair_elemIPN11GrammarRule6SymbolELi0ELb0EE5__getEv
FN:2160,_ZNSt3__122__compressed_pair_elemINS_22__tree_node_destructorINS_9allocatorINS_11__tree_nodeI9SituationPvEEEEEELi1ELb0EE5__getEv
FN:2160,_ZNSt3__122__compressed_pair_elemINS_15__tree_end_nodeIPNS_16__tree_node_baseIPvEEEELi0ELb0EE5__getEv
FN:2160,_ZNSt3__122__compressed_pair_elemIP11GrammarRuleLi0ELb0EE5__getEv
FN:2162,_ZNKSt3__122__compressed_pair_elemIPNS_11__tree_nodeI9SituationPvEELi0ELb0EE5__getEv
FN:2162,_ZNKSt3__122__compressed_pair_elemINS_12basic_stringIcNS_11char_traitsIcEENS_9allocatorIcEEE5__repELi0ELb0EE5__getEv
FN:2162,_ZNKSt3__122__compressed_pair_elemINS_15__tree_end_nodeIPNS_16__tree_node_baseIPvEEEELi0ELb0EE5__getEv
FN:2162,_ZNKSt3__122__compressed_pair_elemIP11GrammarRuleLi0ELb0EE5__getEv
FN:2162,_ZNKSt3__122__compressed_pair_elemImLi0ELb0EE5__getEv
FN:2162,_ZNKSt3__122__compressed_pair_elemIPN11GrammarRule6SymbolELi0ELb0EE5__getEv
FN:2162,_ZNKSt3__122__compressed_pair_elemIPNS_3setI9SituationNS_4lessIS2_EENS_9allocatorIS2_EEEELi0ELb0EE5__getEv
FN:2176,_ZNSt3__122__compressed_pair_elemINS_9allocatorINS_11__tree_nodeI9SituationPvEEEELi1ELb1EEC2Ev
FN:2176,_ZNSt3__122__compressed_pair_elemINS_9allocatorIcEELi1ELb1EEC2Ev
FN:2183,_ZNSt3__122__compressed_pair_elemINS_9allocatorIN11GrammarRule6SymbolEEELi1ELb1EEC2IS4_vEEOT_
FN:2183,_ZNSt3__122__compressed_pair_elemINS_4lessI9SituationEELi1ELb1EEC2IRKS3_vEEOT_
FN:2198,_ZNSt3__122__compressed_pair_elemINS_9allocatorI11GrammarRuleEELi1ELb1EE5__getEv
FN:2198,_ZNSt3__122__compressed_pair_elemINS_9allocatorINS_3setI9SituationNS_4lessIS3_EENS1_IS3_EEEEEELi1ELb1EE5__getEv
FN:2198,_ZNSt3__122__compressed_pair_elemINS_9allocatorIN11GrammarRule6SymbolEEELi1ELb1EE5__getEv
FN:2198,_ZNSt3__122__compressed_pair_elemINS_9allocatorINS_11__tree_nodeI9SituationPvEEEELi1ELb1EE5__getEv
FN:2198,_ZNSt3__122__compressed_pair_elemINS_4lessI9SituationEELi1ELb1EE5__getEv
FN:2200,_ZNKSt3__122__compressed_pair_elemINS_9allocatorI11GrammarRuleEELi1ELb1EE5__getEv
FN:2200,_ZNKSt3__122__compressed_pair_elemINS_9allocatorINS_3setI9SituationNS_4lessIS3_EENS1_IS3_EEEEEELi1ELb1EE5__getEv
FN:2200,_ZNKSt3__122__compressed_pair_elemINS_9allocatorIN11GrammarRule6SymbolEEELi1ELb1EE5__getEv
FN:2230,_ZNSt3__117__compressed_pairINS_15__tree_end_nodeIPNS_16__tree_node_baseIPvEEEENS_9allocatorINS_11__tree_nodeI9SituationS3_EEEEEC2ILb1EvEEv
FN:2230,_ZNSt3__117__compressed_pairINS_15__tree_end_nodeIPNS_16__tree_node_baseIPvEEEENS_9allocatorINS_11__tree_nodeI9SituationS3_EEEEEC1ILb1EvEEv
FN:2230,_ZNSt3__117__compressed_pairINS_12basic_stringIcNS_11char_traitsIcEENS_9allocatorIcEEE5__repES5_EC2ILb1EvEEv
FN:2230,_ZNSt3__117__compressed_pairINS_12basic_stringIcNS_11char_traitsIcEENS_9allocatorIcEEE5__repES5_EC1ILb1EvEEv
FN:2246,_ZNSt3__117__compressed_pairIPNS_3setI9SituationNS_4lessIS2_EENS_9allocatorIS2_EEEERNS5_IS7_EEEC2IDnSA_EEOT_OT0_
FN:2246,_ZNSt3__117__compressed_pairIPNS_3setI9SituationNS_4lessIS2_EENS_9allocatorIS2_EEEERNS5_IS7_EEEC1IDnSA_EEOT_OT0_
FN:2246,_ZNSt3__117__compressed_pairIPNS_11__tree_nodeI9SituationPvEENS_22__tree_node_destructorINS_9allocatorIS4_EEEEEC1IRS5_S9_EEOT_OT0_
FN:2246,_ZNSt3__117__compressed_pairIPN11GrammarRule6SymbolENS_9allocatorIS2_EEEC1IDnS5_EEOT_OT0_
FN:2246,_ZNSt3__117__compressed_pairImNS_4lessI9SituationEEEC2IiRKS3_EEOT_OT0_
FN:2246,_ZNSt3__117__compressed_pairImNS_4lessI9SituationEEEC1IiRKS3_EEOT_OT0_
FN:2246,_ZNSt3__117__compressed_pairIPNS_11__tree_nodeI9SituationPvEENS_22__tree_node_destructorINS_9allocatorIS4_EEEEEC2IRS5_S9_EEOT_OT0_
FN:2246,_ZNSt3__117__compressed_pairIPN11GrammarRule6SymbolENS_9allocatorIS2_EEEC2IDnS5_EEOT_OT0_
FN:2275,_ZNSt3__117__compressed_pairIPNS_11__tree_nodeI9SituationPvEENS_22__tree_node_destructorINS_9allocatorIS4_EEEEE5firstEv
FN:2275,_ZNSt3__117__compressed_pairIPN11GrammarRule6SymbolENS_9allocatorIS2_EEE5firstEv
FN:2275,_ZNSt3__117__compressed_pairINS_12basic_stringIcNS_11char_traitsIcEENS_9allocatorIcEEE5__repES5_E5firstEv
FN:2275,_ZNSt3__117__compressed_pairIP11GrammarRuleNS_9allocatorIS1_EEE5firstEv
FN:2275,_ZNSt3__117__compressed_pairIPNS_3setI9SituationNS_4lessIS2_EENS_9allocatorIS2_EEEENS5_IS7_EEE5firstEv
FN:2275,_ZNSt3__117__compressed_pairINS_15__tree_end_nodeIPNS_16__tree_node_baseIPvEEEENS_9allocatorINS_11__tree_nodeI9SituationS3_EEEEE5firstEv
FN:2275,_ZNSt3__117__compressed_pairIPNS_3setI9SituationNS_4lessIS2_EENS_9allocatorIS2_EEEERNS5_IS7_EEE5firstEv
FN:2275,_ZNSt3__117__compressed_pairImNS_4lessI9SituationEEE5firstEv
FN:2280,_ZNKSt3__117__compressed_pairIPNS_11__tree_nodeI9SituationPvEENS_22__tree_node_destructorINS_9allocatorIS4_EEEEE5firstEv
FN:2280,_ZNKSt3__117__compressed_pairIPN11GrammarRule6SymbolENS_9allocatorIS2_EEE5firstEv
FN:2280,_ZNKSt3__117__compressed_pairIP11GrammarRuleNS_9allocatorIS1_EEE5firstEv
FN:2280,_ZNKSt3__117__compressed_pairINS_12basic_stringIcNS_11char_traitsIcEENS_9allocatorIcEEE5__repES5_E5firstEv
FN:2280,_ZNKSt3__117__compressed_pairImNS_4lessI9SituationEEE5firstEv
FN:2280,_ZNKSt3__117__compressed_pairINS_15__tree_end_nodeIPNS_16__tree_node_baseIPvEEEENS_9allocatorINS_11__tree_nodeI9SituationS3_EEEEE5firstEv
FN:2280,_ZNKSt3__117__compressed_pairIPNS_3setI9SituationNS_4lessIS2_EENS_9allocatorIS2_EEEERNS5_IS7_EEE5firstEv
FN:2280,_ZNKSt3__117__compressed_pairIPNS_3setI9SituationNS_4lessIS2_EENS_9allocatorIS2_EEEENS5_IS7_EEE5firstEv
FN:2285,_ZNSt3__117__compressed_pairIPNS_3setI9SituationNS_4lessIS2_EENS_9allocatorIS2_EEEENS5_IS7_EEE6secondEv
FN:2285,_ZNSt3__117__compressed_pairIPNS_11__tree_nodeI9SituationPvEENS_22__tree_node_destructorINS_9allocatorIS4_EEEEE6secondEv
FN:2285,_ZNSt3__117__compressed_pairIPN11GrammarRule6SymbolENS_9allocatorIS2_EEE6secondEv
FN:2285,_ZNSt3__117__compressed_pairINS_15__tree_end_nodeIPNS_16__tree_node_baseIPvEEEENS_9allocatorINS_11__tree_nodeI9SituationS3_EEEEE6secondEv
FN:2285,_ZNSt3__117__compressed_pairIPNS_3setI9SituationNS_4lessIS2_EENS_9allocatorIS2_EEEERNS5_IS7_EEE6secondEv
FN:2285,_ZNSt3__117__compressed_pairImNS_4lessI9SituationEEE6secondEv
FN:2285,_ZNSt3__117__compressed_pairIP11GrammarRuleNS_9allocatorIS1_EEE6secondEv
FN:2290,_ZNKSt3__117__compressed_pairIPNS_3setI9SituationNS_4lessIS2_EENS_9allocatorIS2_EEEENS5_IS7_EEE6secondEv
FN:2290,_ZNKSt3__117__compressed_pairIP11GrammarRuleNS_9allocatorIS1_EEE6secondEv
FN:2290,_ZNKSt3__117__compressed_pairIPN11GrammarRule6SymbolENS_9allocatorIS2_EEE6secondEv
FN:2478,_ZNSt3__110unique_ptrINS_11__tree_nodeI9SituationPvEENS_22__tree_node_destructorINS_9allocatorIS4_EEEEEC1ILb1EvEEPS4_NS_16__dependent_typeINS_27__unique_ptr_deleter_sfinaeIS8_EEXT_EE20__good_rval_ref_typeE
FN:2478,_ZNSt3__110unique_ptrINS_11__tree_nodeI9SituationPvEENS_22__tree_node_destructorINS_9allocatorIS4_EEEEEC2ILb1EvEEPS4_NS_16__dependent_typeINS_27__unique_ptr_deleter_sfinaeIS8_EEXT_EE20__good_rval_ref_typeE
FN:2602,_ZNSt3__110unique_ptrINS_11__tree_nodeI9SituationPvEENS_22__tree_node_destructorINS_9allocatorIS4_EEEEED2Ev
FN:2602,_ZNSt3__110unique_ptrINS_11__tree_nodeI9SituationPvEENS_22__tree_node_destructorINS_9allocatorIS4_EEEEED1Ev
FN:2616,_ZNKSt3__110unique_ptrINS_11__tree_nodeI9SituationPvEENS_22__tree_node_destructorINS_9allocatorIS4_EEEEEptEv
FN:2620,_ZNKSt3__110unique_ptrINS_11__tree_nodeI9SituationPvEENS_22__tree_node_destructorINS_9allocatorIS4_EEEEE3getEv
FN:2624,_ZNSt3__110unique_ptrINS_11__tree_nodeI9SituationPvEENS_22__tree_node_destructorINS_9allocatorIS4_EEEEE11get_deleterEv
FN:2637,_ZNSt3__110unique_ptrINS_11__tree_nodeI9SituationPvEENS_22__tree_node_destructorINS_9allocatorIS4_EEEEE7releaseEv
FN:2644,_ZNSt3__110unique_ptrINS_11__tree_nodeI9SituationPvEENS_22__tree_node_destructorINS_9allocatorIS4_EEEEE5resetEPS4_
FNDA:24786,_ZNSt3__114pointer_traitsIPNS_15__tree_end_nodeIPNS_16__tree_node_baseIPvEEEEE10pointer_toERS6_
FNDA:812,_ZNSt3__114pointer_traitsIPcE10pointer_toERc
FNDA:0,_ZNSt3__1L16__to_raw_pointerIN11GrammarRule6SymbolEEEPT_S4_
FNDA:195,_ZNSt3__1L16__to_raw_pointerI11GrammarRuleEEPT_S3_
FNDA:829,_ZNSt3__1L16__to_raw_pointerINS_3setI9SituationNS_4lessIS2_EENS_9allocatorIS2_EEEEEEPT_S9_
FNDA:0,_ZNSt3__116allocator_traitsINS_9allocatorIN11GrammarRule6SymbolEEEE8allocateERS4_m
FNDA:0,_ZNSt3__116allocator_traitsINS_9allocatorI11GrammarRuleEEE8allocateERS3_m
FNDA:17,_ZNSt3__116allocator_traitsINS_9allocatorINS_3setI9SituationNS_4lessIS3_EENS1_IS3_EEEEEEE8allocateERS8_m
FNDA:8501,_ZNSt3__116allocator_traitsINS_9allocatorINS_11__tree_nodeI9SituationPvEEEEE8allocateERS6_m
FNDA:0,_ZNSt3__116allocator_traitsINS_9allocatorIN11GrammarRule6SymbolEEEE10deallocateERS4_PS3_m
FNDA:0,_ZNSt3__116allocator_traitsINS_9allocatorI11GrammarRuleEEE10deallocateERS3_PS2_m
FNDA:6516,_ZNSt3__116allocator_traitsINS_9allocatorINS_11__tree_nodeI9SituationPvEEEEE10deallocateERS6_PS5_m
FNDA:9,_ZNSt3__116allocator_traitsINS_9allocatorINS_3setI9SituationNS_4lessIS3_EENS1_IS3_EEEEEEE10deallocateERS8_PS7_m
FNDA:0,_ZNSt3__116allocator_traitsINS_9allocatorI11GrammarRuleEEE9constructIS2_JRS2_EEEvRS3_PT_DpOT0_
FNDA:268,_ZNSt3__116allocator_traitsINS_9allocatorINS_3setI9SituationNS_4lessIS3_EENS1_IS3_EEEEEEE9constructIS7_JEEEvRS8_PT_DpOT0_
FNDA:0,_ZNSt3__116allocator_traitsINS_9allocatorINS_3setI9SituationNS_4lessIS3_EENS1_IS3_EEEEEEE9constructIS7_JS7_EEEvRS8_PT_DpOT0_
FNDA:47,_ZNSt3__116allocator_traitsINS_9allocatorINS_11__tree_nodeI9SituationPvEEEEE9constructIS3_JRKS3_EEEvRS6_PT_DpOT0_
FNDA:855,_ZNSt3__116allocator_traitsINS_9allocatorINS_11__tree_nodeI9SituationPvEEEEE9constructIS3_JS3_EEEvRS6_PT_DpOT0_
FNDA:7599,_ZNSt3__116allocator_traitsINS_9allocatorINS_11__tree_nodeI9SituationPvEEEEE9constructIS3_JRK11GrammarRuleRmiEEEvRS6_PT_DpOT0_
FNDA:0,_ZNSt3__116allocator_traitsINS_9allocatorIN11GrammarRule6SymbolEEEE7destroyIS3_EEvRS4_PT_
FNDA:39,_ZNSt3__116allocator_traitsINS_9allocatorI11GrammarRuleEEE7destroyIS2_EEvRS3_PT_
FNDA:237,_ZNSt3__116allocator_traitsINS_9allocatorINS_3setI9SituationNS_4lessIS3_EENS1_IS3_EEEEEEE7destroyIS7_EEvRS8_PT_
FNDA:6516,_ZNSt3__116allocator_traitsINS_9allocatorINS_11__tree_nodeI9SituationPvEEEEE7destroyIS3_EEvRS6_PT_
FNDA:0,_ZNSt3__116allocator_traitsINS_9allocatorIN11GrammarRule6SymbolEEEE8max_sizeERKS4_
FNDA:0,_ZNSt3__116allocator_traitsINS_9allocatorI11GrammarRuleEEE8max_sizeERKS3_
FNDA:17,_ZNSt3__116allocator_traitsINS_9allocatorINS_3setI9SituationNS_4lessIS3_EENS1_IS3_EEEEEEE8max_sizeERKS8_
FNDA:0,_ZNSt3__116allocator_traitsINS_9allocatorIN11GrammarRule6SymbolEEEE37select_on_container_copy_constructionERKS4_
FNDA:0,_ZNSt3__116allocator_traitsINS_9allocatorI11GrammarRuleEEE25__construct_range_forwardIPS2_S6_EEvRS3_T_S8_RT0_
FNDA:0,_ZNSt3__116allocator_traitsINS_9allocatorIN11GrammarRule6SymbolEEEE25__construct_range_forwardIS3_S3_S3_S3_EENS_9enable_ifIXaaaasr31is_trivially_move_constructibleIT0_EE5valuesr7is_sameIT1_T2_EE5valueooL_ZNS_17integral_constantIbLb1EE5valueEEntsr15__has_constructIS4_PS8_RT_EE5valueEvE4typeERS4_PSE_SJ_RSD_
FNDA:17,_ZNSt3__116allocator_traitsINS_9allocatorINS_3setI9SituationNS_4lessIS3_EENS1_IS3_EEEEEEE20__construct_backwardIPS7_EEvRS8_T_SD_RSD_
FNDA:0,_ZNSt3__116allocator_traitsINS_9allocatorI11GrammarRuleEEE11__constructIS2_JRS2_EEEvNS_17integral_constantIbLb1EEERS3_PT_DpOT0_
FNDA:268,_ZNSt3__116allocator_traitsINS_9allocatorINS_3setI9SituationNS_4lessIS3_EENS1_IS3_EEEEEEE11__constructIS7_JEEEvNS_17integral_constantIbLb1EEERS8_PT_DpOT0_
FNDA:0,_ZNSt3__116allocator_traitsINS_9allocatorINS_3setI9SituationNS_4lessIS3_EENS1_IS3_EEEEEEE11__constructIS7_JS7_EEEvNS_17integral_constantIbLb1EEERS8_PT_DpOT0_
FNDA:47,_ZNSt3__116allocator_traitsINS_9allocatorINS_11__tree_nodeI9SituationPvEEEEE11__constructIS3_JRKS3_EEEvNS_17integral_constantIbLb1EEERS6_PT_DpOT0_
FNDA:855,_ZNSt3__116allocator_traitsINS_9allocatorINS_11__tree_nodeI9SituationPvEEEEE11__constructIS3_JS3_EEEvNS_17integral_constantIbLb1EEERS6_PT_DpOT0_
FNDA:7599,_ZNSt3__116allocator_traitsINS_9allocatorINS_11__tree_nodeI9SituationPvEEEEE11__constructIS3_JRK11GrammarRuleRmiEEEvNS_17integral_constantIbLb1EEERS6_PT_DpOT0_
FNDA:0,_ZNSt3__116allocator_traitsINS_9allocatorIN11GrammarRule6SymbolEEEE9__destroyIS3_EEvNS_17integral_constantIbLb1EEERS4_PT_
FNDA:39,_ZNSt3__116allocator_traitsINS_9allocatorI11GrammarRuleEEE9__destroyIS2_EEvNS_17integral_constantIbLb1EEERS3_PT_
FNDA:237,_ZNSt3__116allocator_traitsINS_9allocatorINS_3setI9SituationNS_4lessIS3_EENS1_IS3_EEEEEEE9__destroyIS7_EEvNS_17integral_constantIbLb1EEERS8_PT_
FNDA:6516,_ZNSt3__116allocator_traitsINS_9allocatorINS_11__tree_nodeI9SituationPvEEEEE9__destroyIS3_EEvNS_17integral_constantIbLb0EEERS6_PT_
FNDA:0,_ZNSt3__116allocator_traitsINS_9allocatorIN11GrammarRule6SymbolEEEE10__max_sizeENS_17integral_constantIbLb1EEERKS4_
FNDA:0,_ZNSt3__116allocator_traitsINS_9allocatorI11GrammarRuleEEE10__max_sizeENS_17integral_constantIbLb1EEERKS3_
FNDA:17,_ZNSt3__116allocator_traitsINS_9allocatorINS_3setI9SituationNS_4lessIS3_EENS1_IS3_EEEEEEE10__max_sizeENS_17integral_constantIbLb1EEERKS8_
FNDA:0,_ZNSt3__116allocator_traitsINS_9allocatorIN11GrammarRule6SymbolEEEE39__select_on_container_copy_constructionENS_17integral_constantIbLb0EEERKS4_
FNDA:268,_ZNSt3__19allocatorINS_11__tree_nodeI9SituationPvEEEC2Ev
FNDA:47,_ZNSt3__19allocatorIcEC2Ev
FNDA:0,_ZNSt3__19allocatorIN11GrammarRule6SymbolEE8allocateEmPKv
FNDA:0,_ZNSt3__19allocatorI11GrammarRuleE8allocateEmPKv
FNDA:17,_ZNSt3__19allocatorINS_3setI9SituationNS_4lessIS2_EENS0_IS2_EEEEE8allocateEmPKv
FNDA:8501,_ZNSt3__19allocatorINS_11__tree_nodeI9SituationPvEEE8allocateEmPKv
FNDA:0,_ZNSt3__19allocatorIN11GrammarRule6SymbolEE10deallocateEPS2_m
FNDA:0,_ZNSt3__19allocatorI11GrammarRuleE10deallocateEPS1_m
FNDA:6516,_ZNSt3__19allocatorINS_11__tree_nodeI9SituationPvEEE10deallocateEPS4_m
FNDA:9,_ZNSt3__19allocatorINS_3setI9SituationNS_4lessIS2_EENS0_IS2_EEEEE10deallocateEPS6_m
FNDA:0,_ZNKSt3__19allocatorIN11GrammarRule6SymbolEE8max_sizeEv
FNDA:0,_ZNKSt3__19allocatorI11GrammarRuleE8max_sizeEv
FNDA:34,_ZNKSt3__19allocatorINS_3setI9SituationNS_4lessIS2_EENS0_IS2_EEEEE8max_sizeEv
FNDA:8501,_ZNKSt3__19allocatorINS_11__tree_nodeI9SituationPvEEE8max_sizeEv
FNDA:0,_ZNSt3__19allocatorI11GrammarRuleE9constructIS1_JRS1_EEEvPT_DpOT0_
FNDA:268,_ZNSt3__19allocatorINS_3setI9SituationNS_4lessIS2_EENS0_IS2_EEEEE9constructIS6_JEEEvPT_DpOT0_
FNDA:0,_ZNSt3__19allocatorINS_3setI9SituationNS_4lessIS2_EENS0_IS2_EEEEE9constructIS6_JS6_EEEvPT_DpOT0_
FNDA:47,_ZNSt3__19allocatorINS_11__tree_nodeI9SituationPvEEE9constructIS2_JRKS2_EEEvPT_DpOT0_
FNDA:855,_ZNSt3__19allocatorINS_11__tree_nodeI9SituationPvEEE9constructIS2_JS2_EEEvPT_DpOT0_
FNDA:7599,_ZNSt3__19allocatorINS_11__tree_nodeI9SituationPvEEE9constructIS2_JRK11GrammarRuleRmiEEEvPT_DpOT0_
FNDA:0,_ZNSt3__19allocatorIN11GrammarRule6SymbolEE7destroyEPS2_
FNDA:39,_ZNSt3__19allocatorI11GrammarRuleE7destroyEPS1_
FNDA:237,_ZNSt3__19allocatorINS_3setI9SituationNS_4lessIS2_EENS0_IS2_EEEEE7destroyEPS6_
FNDA:268,_ZNSt3__122__compressed_pair_elemINS_15__tree_end_nodeIPNS_16__tree_node_baseIPvEEEELi0ELb0EEC2Ev
FNDA:47,_ZNSt3__122__compressed_pair_elemINS_12basic_stringIcNS_11char_traitsIcEENS_9allocatorIcEEE5__repELi0ELb0EEC2Ev
FNDA:0,_ZNSt3__122__compressed_pair_elemIPN11GrammarRule6SymbolELi0ELb0EEC2IDnvEEOT_
FNDA:268,_ZNSt3__122__compressed_pair_elemImLi0ELb0EEC2IivEEOT_
FNDA:17,_ZNSt3__122__compressed_pair_elemIPNS_3setI9SituationNS_4lessIS2_EENS_9allocatorIS2_EEEELi0ELb0EEC2IDnvEEOT_
FNDA:17,_ZNSt3__122__compressed_pair_elemIRNS_9allocatorINS_3setI9SituationNS_4lessIS3_EENS1_IS3_EEEEEELi1ELb0EEC2IS9_vEEOT_
FNDA:8501,_ZNSt3__122__compressed_pair_elemIPNS_11__tree_nodeI9SituationPvEELi0ELb0EEC2IRS5_vEEOT_
FNDA:8501,_ZNSt3__122__compressed_pair_elemINS_22__tree_node_destructorINS_9allocatorINS_11__tree_nodeI9SituationPvEEEEEELi1ELb0EEC2IS8_vEEOT_
FNDA:0,_ZNSt3__122__compressed_pair_elemIPN11GrammarRule6SymbolELi0ELb0EE5__getEv
FNDA:0,_ZNSt3__122__compressed_pair_elemIP11GrammarRuleLi0ELb0EE5__getEv
FNDA:98,_ZNSt3__122__compressed_pair_elemIPNS_3setI9SituationNS_4lessIS2_EENS_9allocatorIS2_EEEELi0ELb0EE5__getEv
FNDA:5352,_ZNSt3__122__compressed_pair_elemINS_15__tree_end_nodeIPNS_16__tree_node_baseIPvEEEELi0ELb0EE5__getEv
FNDA:43,_ZNSt3__122__compressed_pair_elemIRNS_9allocatorINS_3setI9SituationNS_4lessIS3_EENS1_IS3_EEEEEELi1ELb0EE5__getEv
FNDA:1985,_ZNSt3__122__compressed_pair_elemImLi0ELb0EE5__getEv
FNDA:15017,_ZNSt3__122__compressed_pair_elemINS_22__tree_node_destructorINS_9allocatorINS_11__tree_nodeI9SituationPvEEEEEELi1ELb0EE5__getEv
FNDA:20972,_ZNSt3__122__compressed_pair_elemIPNS_11__tree_nodeI9SituationPvEELi0ELb0EE5__getEv
FNDA:906,_ZNSt3__122__compressed_pair_elemINS_12basic_stringIcNS_11char_traitsIcEENS_9allocatorIcEEE5__repELi0ELb0EE5__getEv
FNDA:94,_ZNKSt3__122__compressed_pair_elemIP11GrammarRuleLi0ELb0EE5__getEv
FNDA:0,_ZNKSt3__122__compressed_pair_elemIPN11GrammarRule6SymbolELi0ELb0EE5__getEv
FNDA:19434,_ZNKSt3__122__compressed_pair_elemINS_15__tree_end_nodeIPNS_16__tree_node_baseIPvEEEELi0ELb0EE5__getEv
FNDA:141,_ZNKSt3__122__compressed_pair_elemIPNS_3setI9SituationNS_4lessIS2_EENS_9allocatorIS2_EEEELi0ELb0EE5__getEv
FNDA:1630,_ZNKSt3__122__compressed_pair_elemINS_12basic_stringIcNS_11char_traitsIcEENS_9allocatorIcEEE5__repELi0ELb0EE5__getEv
FNDA:18085,_ZNKSt3__122__compressed_pair_elemIPNS_11__tree_nodeI9SituationPvEELi0ELb0EE5__getEv
FNDA:1528,_ZNKSt3__122__compressed_pair_elemImLi0ELb0EE5__getEv
FNDA:268,_ZNSt3__122__compressed_pair_elemINS_9allocatorINS_11__tree_nodeI9SituationPvEEEELi1ELb1EEC2Ev
FNDA:47,_ZNSt3__122__compressed_pair_elemINS_9allocatorIcEELi1ELb1EEC2Ev
FNDA:0,_ZNSt3__122__compressed_pair_elemINS_9allocatorIN11GrammarRule6SymbolEEELi1ELb1EEC2IS4_vEEOT_
FNDA:268,_ZNSt3__122__compressed_pair_elemINS_4lessI9SituationEELi1ELb1EEC2IRKS3_vEEOT_
FNDA:0,_ZNSt3__122__compressed_pair_elemINS_9allocatorIN11GrammarRule6SymbolEEELi1ELb1EE5__getEv
FNDA:39,_ZNSt3__122__compressed_pair_elemINS_9allocatorI11GrammarRuleEELi1ELb1EE5__getEv
FNDA:8501,_ZNSt3__122__compressed_pair_elemINS_9allocatorINS_11__tree_nodeI9SituationPvEEEELi1ELb1EE5__getEv
FNDA:301,_ZNSt3__122__compressed_pair_elemINS_9allocatorINS_3setI9SituationNS_4lessIS3_EENS1_IS3_EEEEEELi1ELb1EE5__getEv
FNDA:50945,_ZNSt3__122__compressed_pair_elemINS_4lessI9SituationEELi1ELb1EE5__getEv
FNDA:0,_ZNKSt3__122__compressed_pair_elemINS_9allocatorIN11GrammarRule6SymbolEEELi1ELb1EE5__getEv
FNDA:0,_ZNKSt3__122__compressed_pair_elemINS_9allocatorI11GrammarRuleEELi1ELb1EE5__getEv
FNDA:17,_ZNKSt3__122__compressed_pair_elemINS_9allocatorINS_3setI9SituationNS_4lessIS3_EENS1_IS3_EEEEEELi1ELb1EE5__getEv
FNDA:268,_ZNSt3__117__compressed_pairINS_15__tree_end_nodeIPNS_16__tree_node_baseIPvEEEENS_9allocatorINS_11__tree_nodeI9SituationS3_EEEEEC1ILb1EvEEv
FNDA:268,_ZNSt3__117__compressed_pairINS_15__tree_end_nodeIPNS_16__tree_node_baseIPvEEEENS_9allocatorINS_11__tree_nodeI9SituationS3_EEEEEC2ILb1EvEEv
FNDA:47,_ZNSt3__117__compressed_pairINS_12basic_stringIcNS_11char_traitsIcEENS_9allocatorIcEEE5__repES5_EC1ILb1EvEEv
FNDA:47,_ZNSt3__117__compressed_pairINS_12basic_stringIcNS_11char_traitsIcEENS_9allocatorIcEEE5__repES5_EC2ILb1EvEEv
FNDA:0,_ZNSt3__117__compressed_pairIPN11GrammarRule6SymbolENS_9allocatorIS2_EEEC1IDnS5_EEOT_OT0_
FNDA:0,_ZNSt3__117__compressed_pairIPN11GrammarRule6SymbolENS_9allocatorIS2_EEEC2IDnS5_EEOT_OT0_
FNDA:268,_ZNSt3__117__compressed_pairImNS_4lessI9SituationEEEC1IiRKS3_EEOT_OT0_
FNDA:268,_ZNSt3__117__compressed_pairImNS_4lessI9SituationEEEC2IiRKS3_EEOT_OT0_
FNDA:17,_ZNSt3__117__compressed_pairIPNS_3setI9SituationNS_4lessIS2_EENS_9allocatorIS2_EEEERNS5_IS7_EEEC1IDnSA_EEOT_OT0_
FNDA:17,_ZNSt3__117__compressed_pairIPNS_3setI9SituationNS_4lessIS2_EENS_9allocatorIS2_EEEERNS5_IS7_EEEC2IDnSA_EEOT_OT0_
FNDA:8501,_ZNSt3__117__compressed_pairIPNS_11__tree_nodeI9SituationPvEENS_22__tree_node_destructorINS_9allocatorIS4_EEEEEC1IRS5_S9_EEOT_OT0_
FNDA:8501,_ZNSt3__117__compressed_pairIPNS_11__tree_nodeI9SituationPvEENS_22__tree_node_destructorINS_9allocatorIS4_EEEEEC2IRS5_S9_EEOT_OT0_
FNDA:0,_ZNSt3__117__compressed_pairIPN11GrammarRule6SymbolENS_9allocatorIS2_EEE5firstEv
FNDA:0,_ZNSt3__117__compressed_pairIP11GrammarRuleNS_9allocatorIS1_EEE5firstEv
FNDA:64,_ZNSt3__117__compressed_pairIPNS_3setI9SituationNS_4lessIS2_EENS_9allocatorIS2_EEEENS5_IS7_EEE5firstEv
FNDA:5352,_ZNSt3__117__compressed_pairINS_15__tree_end_nodeIPNS_16__tree_node_baseIPvEEEENS_9allocatorINS_11__tree_nodeI9SituationS3_EEEEE5firstEv
FNDA:34,_ZNSt3__117__compressed_pairIPNS_3setI9SituationNS_4lessIS2_EENS_9allocatorIS2_EEEERNS5_IS7_EEE5firstEv
FNDA:1985,_ZNSt3__117__compressed_pairImNS_4lessI9SituationEEE5firstEv
FNDA:20972,_ZNSt3__117__compressed_pairIPNS_11__tree_nodeI9SituationPvEENS_22__tree_node_destructorINS_9allocatorIS4_EEEEE5firstEv
FNDA:906,_ZNSt3__117__compressed_pairINS_12basic_stringIcNS_11char_traitsIcEENS_9allocatorIcEEE5__repES5_E5firstEv
FNDA:94,_ZNKSt3__117__compressed_pairIP11GrammarRuleNS_9allocatorIS1_EEE5firstEv
FNDA:0,_ZNKSt3__117__compressed_pairIPN11GrammarRule6SymbolENS_9allocatorIS2_EEE5firstEv
FNDA:19434,_ZNKSt3__117__compressed_pairINS_15__tree_end_nodeIPNS_16__tree_node_baseIPvEEEENS_9allocatorINS_11__tree_nodeI9SituationS3_EEEEE5firstEv
FNDA:132,_ZNKSt3__117__compressed_pairIPNS_3setI9SituationNS_4lessIS2_EENS_9allocatorIS2_EEEENS5_IS7_EEE5firstEv
FNDA:1630,_ZNKSt3__117__compressed_pairINS_12basic_stringIcNS_11char_traitsIcEENS_9allocatorIcEEE5__repES5_E5firstEv
FNDA:9,_ZNKSt3__117__compressed_pairIPNS_3setI9SituationNS_4lessIS2_EENS_9allocatorIS2_EEEERNS5_IS7_EEE5firstEv
FNDA:18085,_ZNKSt3__117__compressed_pairIPNS_11__tree_nodeI9SituationPvEENS_22__tree_node_destructorINS_9allocatorIS4_EEEEE5firstEv
FNDA:1528,_ZNKSt3__117__compressed_pairImNS_4lessI9SituationEEE5firstEv
FNDA:0,_ZNSt3__117__compressed_pairIPN11GrammarRule6SymbolENS_9allocatorIS2_EEE6secondEv
FNDA:39,_ZNSt3__117__compressed_pairIP11GrammarRuleNS_9allocatorIS1_EEE6secondEv
FNDA:8501,_ZNSt3__117__compressed_pairINS_15__tree_end_nodeIPNS_16__tree_node_baseIPvEEEENS_9allocatorINS_11__tree_nodeI9SituationS3_EEEEE6secondEv
FNDA:301,_ZNSt3__117__compressed_pairIPNS_3setI9SituationNS_4lessIS2_EENS_9allocatorIS2_EEEENS5_IS7_EEE6secondEv
FNDA:43,_ZNSt3__117__compressed_pairIPNS_3setI9SituationNS_4lessIS2_EENS_9allocatorIS2_EEEERNS5_IS7_EEE6secondEv
FNDA:50945,_ZNSt3__117__compressed_pairImNS_4lessI9SituationEEE6secondEv
FNDA:15017,_ZNSt3__117__compressed_pairIPNS_11__tree_nodeI9SituationPvEENS_22__tree_node_destructorINS_9allocatorIS4_EEEEE6secondEv
FNDA:0,_ZNKSt3__117__compressed_pairIPN11GrammarRule6SymbolENS_9allocatorIS2_EEE6secondEv
FNDA:0,_ZNKSt3__117__compressed_pairIP11GrammarRuleNS_9allocatorIS1_EEE6secondEv
FNDA:17,_ZNKSt3__117__compressed_pairIPNS_3setI9SituationNS_4lessIS2_EENS_9allocatorIS2_EEEENS5_IS7_EEE6secondEv
FNDA:8501,_ZNSt3__110unique_ptrINS_11__tree_nodeI9SituationPvEENS_22__tree_node_destructorINS_9allocatorIS4_EEEEEC1ILb1EvEEPS4_NS_16__dependent_typeINS_27__unique_ptr_deleter_sfinaeIS8_EEXT_EE20__good_rval_ref_typeE
FNDA:8501,_ZNSt3__110unique_ptrINS_11__tree_nodeI9SituationPvEENS_22__tree_node_destructorINS_9allocatorIS4_EEEEEC2ILb1EvEEPS4_NS_16__dependent_typeINS_27__unique_ptr_deleter_sfinaeIS8_EEXT_EE20__good_rval_ref_typeE
FNDA:8501,_ZNSt3__110unique_ptrINS_11__tree_nodeI9SituationPvEENS_22__tree_node_destructorINS_9allocatorIS4_EEEEED1Ev
FNDA:8501,_ZNSt3__110unique_ptrINS_11__tree_nodeI9SituationPvEENS_22__tree_node_destructorINS_9allocatorIS4_EEEEED2Ev
FNDA:16100,_ZNKSt3__110unique_ptrINS_11__tree_nodeI9SituationPvEENS_22__tree_node_destructorINS_9allocatorIS4_EEEEEptEv
FNDA:1985,_ZNKSt3__110unique_ptrINS_11__tree_nodeI9SituationPvEENS_22__tree_node_destructorINS_9allocatorIS4_EEEEE3getEv
FNDA:8501,_ZNSt3__110unique_ptrINS_11__tree_nodeI9SituationPvEENS_22__tree_node_destructorINS_9allocatorIS4_EEEEE11get_deleterEv
FNDA:1985,_ZNSt3__110unique_ptrINS_11__tree_nodeI9SituationPvEENS_22__tree_node_destructorINS_9allocatorIS4_EEEEE7releaseEv
FNDA:8501,_ZNSt3__110unique_ptrINS_11__tree_nodeI9SituationPvEENS_22__tree_node_destructorINS_9allocatorIS4_EEEEE5resetEPS4_
FNF:150
FNH:106
DA:989,25598
DA:1107,1024
DA:1546,8518
DA:1554,6525
DA:1560,17538
DA:1561,17538
DA:1595,6792
DA:1599,17
DA:1604,0
DA:1605,0
DA:1606,0
DA:1644,0
DA:1645,0
DA:1646,0
DA:1663,0
DA:1664,0
DA:1666,0
DA:1667,0
DA:1668,0
DA:1669,0
DA:1677,34
DA:1679,0
DA:1680,0
DA:1682,17
DA:1717,8769
DA:1742,276
DA:1747,6516
DA:1748,6516
DA:1752,17
DA:1764,0
DA:1797,315
DA:1810,8518
DA:1811,0
DA:1813,8518
DA:1816,13050
DA:1818,8535
DA:1825,8769
DA:1826,8769
DA:1880,276
DA:2139,315
DA:2147,17304
DA:2160,44373
DA:2162,40912
DA:2176,315
DA:2184,268
DA:2198,59786
DA:2200,17
DA:2230,630
DA:2247,17572
DA:2276,29313
DA:2281,40912
DA:2286,74846
DA:2291,17
DA:2479,17002
DA:2482,17002
DA:2602,17002
DA:2617,16100
DA:2621,1985
DA:2625,8501
DA:2638,1985
DA:2639,1985
DA:2640,1985
DA:2645,8501
DA:2646,8501
DA:2647,8501
DA:2648,6516
DA:2649,8501
LF:67
LH:51
end_of_record
SF:/Library/Developer/CommandLineTools/usr/include/c++/v1/new
FN:228,_ZNSt3__1L24__is_overaligned_for_newEm
FN:236,_ZNSt3__1L17__libcpp_allocateEmm
FN:256,_ZNSt3__1L19__libcpp_deallocateEPvm
FNDA:15043,_ZNSt3__1L24__is_overaligned_for_newEm
FNDA:8518,_ZNSt3__1L17__libcpp_allocateEmm
FNDA:6525,_ZNSt3__1L19__libcpp_deallocateEPvm
FNF:3
FNH:3
DA:230,15043
DA:238,8518
DA:239,0
DA:243,0
DA:252,8518
DA:254,8518
DA:258,6525
DA:259,0
DA:263,0
DA:272,6525
DA:274,6525
LF:11
LH:7
end_of_record
SF:/Library/Developer/CommandLineTools/usr/include/c++/v1/set
FN:414,_ZNSt3__13setI9SituationNS_4lessIS1_EENS_9allocatorIS1_EEED1Ev
FN:414,_ZNSt3__13setI9SituationNS_4lessIS1_EENS_9allocatorIS1_EEED2Ev
FN:453,_ZNSt3__13setI9SituationNS_4lessIS1_EENS_9allocatorIS1_EEEC1Ev
FN:453,_ZNSt3__13setI9SituationNS_4lessIS1_EENS_9allocatorIS1_EEEC2Ev
FN:511,_ZNSt3__13setI9SituationNS_4lessIS1_EENS_9allocatorIS1_EEEC1EOS6_
FN:511,_ZNSt3__13setI9SituationNS_4lessIS1_EENS_9allocatorIS1_EEEC2EOS6_
FN:568,_ZNSt3__13setI9SituationNS_4lessIS1_EENS_9allocatorIS1_EEE5beginEv
FN:570,_ZNKSt3__13setI9SituationNS_4lessIS1_EENS_9allocatorIS1_EEE5beginEv
FN:572,_ZNSt3__13setI9SituationNS_4lessIS1_EENS_9allocatorIS1_EEE3endEv
FN:574,_ZNKSt3__13setI9SituationNS_4lessIS1_EENS_9allocatorIS1_EEE3endEv
FN:601,_ZNKSt3__13setI9SituationNS_4lessIS1_EENS_9allocatorIS1_EEE4sizeEv
FN:609,_ZNSt3__13setI9SituationNS_4lessIS1_EENS_9allocatorIS1_EEE7emplaceIJRK11GrammarRuleRmiEEENS_4pairINS_21__tree_const_iteratorIS1_PNS_11__tree_nodeIS1_PvEElEEbEEDpOT_
FN:618,_ZNSt3__13setI9SituationNS_4lessIS1_EENS_9allocatorIS1_EEE6insertERKS1_
FN:634,_ZNSt3__13setI9SituationNS_4lessIS1_EENS_9allocatorIS1_EEE6insertEOS1_
FNDA:0,_ZNSt3__13setI9SituationNS_4lessIS1_EENS_9allocatorIS1_EEED1Ev
FNDA:0,_ZNSt3__13setI9SituationNS_4lessIS1_EENS_9allocatorIS1_EEED2Ev
FNDA:268,_ZNSt3__13setI9SituationNS_4lessIS1_EENS_9allocatorIS1_EEEC1Ev
FNDA:268,_ZNSt3__13setI9SituationNS_4lessIS1_EENS_9allocatorIS1_EEEC2Ev
FNDA:0,_ZNSt3__13setI9SituationNS_4lessIS1_EENS_9allocatorIS1_EEEC1EOS6_
FNDA:0,_ZNSt3__13setI9SituationNS_4lessIS1_EENS_9allocatorIS1_EEEC2EOS6_
FNDA:2855,_ZNSt3__13setI9SituationNS_4lessIS1_EENS_9allocatorIS1_EEE5beginEv
FNDA:47,_ZNKSt3__13setI9SituationNS_4lessIS1_EENS_9allocatorIS1_EEE5beginEv
FNDA:2855,_ZNSt3__13setI9SituationNS_4lessIS1_EENS_9allocatorIS1_EEE3endEv
FNDA:94,_ZNKSt3__13setI9SituationNS_4lessIS1_EENS_9allocatorIS1_EEE3endEv
FNDA:1528,_ZNKSt3__13setI9SituationNS_4lessIS1_EENS_9allocatorIS1_EEE4sizeEv
FNDA:7599,_ZNSt3__13setI9SituationNS_4lessIS1_EENS_9allocatorIS1_EEE7emplaceIJRK11GrammarRuleRmiEEENS_4pairINS_21__tree_const_iteratorIS1_PNS_11__tree_nodeIS1_PvEElEEbEEDpOT_
FNDA:47,_ZNSt3__13setI9SituationNS_4lessIS1_EENS_9allocatorIS1_EEE6insertERKS1_
FNDA:2024,_ZNSt3__13setI9SituationNS_4lessIS1_EENS_9allocatorIS1_EEE6insertEOS1_
FNF:14
FNH:10
DA:414,0
DA:458,536
DA:513,0
DA:568,2855
DA:570,47
DA:572,2855
DA:574,94
DA:601,1528
DA:610,7599
DA:619,47
DA:635,2024
LF:11
LH:9
end_of_record
SF:/Library/Developer/CommandLineTools/usr/include/c++/v1/stdexcept
FN:136,_ZNSt12length_errorC2EPKc
FN:136,_ZNSt12length_errorC1EPKc
FN:222,_ZNSt3__1L20__throw_length_errorEPKc
FNDA:0,_ZNSt12length_errorC1EPKc
FNDA:0,_ZNSt12length_errorC2EPKc
FNDA:0,_ZNSt3__1L20__throw_length_errorEPKc
FNF:3
FNH:0
DA:136,0
DA:225,0
DA:230,0
LF:3
LH:0
end_of_record
SF:/Library/Developer/CommandLineTools/usr/include/c++/v1/string
FN:940,_ZNKSt3__112basic_stringIcNS_11char_traitsIcEENS_9allocatorIcEEE4sizeEv
FN:1405,_ZNKSt3__112basic_stringIcNS_11char_traitsIcEENS_9allocatorIcEEE9__is_longEv
FN:1454,_ZNKSt3__112basic_stringIcNS_11char_traitsIcEENS_9allocatorIcEEE16__get_short_sizeEv
FN:1467,_ZNKSt3__112basic_stringIcNS_11char_traitsIcEENS_9allocatorIcEEE15__get_long_sizeEv
FN:1484,_ZNSt3__112basic_stringIcNS_11char_traitsIcEENS_9allocatorIcEEE18__get_long_pointerEv
FN:1490,_ZNSt3__112basic_stringIcNS_11char_traitsIcEENS_9allocatorIcEEE19__get_short_pointerEv
FN:1496,_ZNSt3__112basic_stringIcNS_11char_traitsIcEENS_9allocatorIcEEE13__get_pointerEv
FN:1503,_ZNSt3__112basic_stringIcNS_11char_traitsIcEENS_9allocatorIcEEE6__zeroEv
FN:1848,_ZNSt3__112basic_stringIcNS_11char_traitsIcEENS_9allocatorIcEEEC2EOS5_
FN:1848,_ZNSt3__112basic_stringIcNS_11char_traitsIcEENS_9allocatorIcEEEC1EOS5_
FN:1911,_ZNSt3__112basic_stringIcNS_11char_traitsIcEENS_9allocatorIcEEEC2Emc
FN:1911,_ZNSt3__112basic_stringIcNS_11char_traitsIcEENS_9allocatorIcEEEC1Emc
FN:3161,_ZNSt3__112basic_stringIcNS_11char_traitsIcEENS_9allocatorIcEEEixEm
FN:4096,_ZNSt3__1plIcNS_11char_traitsIcEENS_9allocatorIcEEEENS_12basic_stringIT_T0_T1_EEOS9_PKS6_
FN:4104,_ZNSt3__1plIcNS_11char_traitsIcEENS_9allocatorIcEEEENS_12basic_stringIT_T0_T1_EEOS9_S6_
FNDA:409,_ZNKSt3__112basic_stringIcNS_11char_traitsIcEENS_9allocatorIcEEE4sizeEv
FNDA:1221,_ZNKSt3__112basic_stringIcNS_11char_traitsIcEENS_9allocatorIcEEE9__is_longEv
FNDA:409,_ZNKSt3__112basic_stringIcNS_11char_traitsIcEENS_9allocatorIcEEE16__get_short_sizeEv
FNDA:0,_ZNKSt3__112basic_stringIcNS_11char_traitsIcEENS_9allocatorIcEEE15__get_long_sizeEv
FNDA:0,_ZNSt3__112basic_stringIcNS_11char_traitsIcEENS_9allocatorIcEEE18__get_long_pointerEv
FNDA:812,_ZNSt3__112basic_stringIcNS_11char_traitsIcEENS_9allocatorIcEEE19__get_short_pointerEv
FNDA:812,_ZNSt3__112basic_stringIcNS_11char_traitsIcEENS_9allocatorIcEEE13__get_pointerEv
FNDA:94,_ZNSt3__112basic_stringIcNS_11char_traitsIcEENS_9allocatorIcEEE6__zeroEv
FNDA:94,_ZNSt3__112basic_stringIcNS_11char_traitsIcEENS_9allocatorIcEEEC1EOS5_
FNDA:94,_ZNSt3__112basic_stringIcNS_11char_traitsIcEENS_9allocatorIcEEEC2EOS5_
FNDA:47,_ZNSt3__112basic_stringIcNS_11char_traitsIcEENS_9allocatorIcEEEC1Emc
FNDA:47,_ZNSt3__112basic_stringIcNS_11char_traitsIcEENS_9allocatorIcEEEC2Emc
FNDA:812,_ZNSt3__112basic_stringIcNS_11char_traitsIcEENS_9allocatorIcEEEixEm
FNDA:47,_ZNSt3__1plIcNS_11char_traitsIcEENS_9allocatorIcEEEENS_12basic_stringIT_T0_T1_EEOS9_PKS6_
FNDA:47,_ZNSt3__1plIcNS_11char_traitsIcEENS_9allocatorIcEEEENS_12basic_stringIT_T0_T1_EEOS9_S6_
FNF:15
FNH:13
DA:828,47
DA:941,1227
DA:1406,1221
DA:1458,409
DA:1468,0
DA:1485,0
DA:1491,812
DA:1497,2436
DA:1505,94
DA:1506,752
DA:1507,282
DA:1508,94
DA:1854,94
DA:1855,188
DA:1856,94
DA:1862,188
DA:1912,94
DA:1913,47
DA:1917,94
DA:3164,812
DA:4098,47
DA:4106,47
DA:4107,47
LF:23
LH:21
end_of_record
SF:/Library/Developer/CommandLineTools/usr/include/c++/v1/type_traits
FN:449,_ZNSt3__1L9addressofINS_15__tree_end_nodeIPNS_16__tree_node_baseIPvEEEEEEPT_RS7_
FN:449,_ZNSt3__1L9addressofIPNS_16__tree_node_baseIPvEEEEPT_RS5_
FN:449,_ZNSt3__1L9addressofI9SituationEEPT_RS2_
FN:449,_ZNSt3__1L9addressofIcEEPT_RS1_
FN:2288,_ZNSt3__1L4moveIRNS_12basic_stringIcNS_11char_traitsIcEENS_9allocatorIcEEEEEEONS_16remove_referenceIT_E4typeEOS9_
FN:2288,_ZNSt3__1L4moveIRNS_17__compressed_pairImNS_4lessI9SituationEEEEEEONS_16remove_referenceIT_E4typeEOS8_
FN:2288,_ZNSt3__1L4moveIRPNS_3setI9SituationNS_4lessIS2_EENS_9allocatorIS2_EEEEEEONS_16remove_referenceIT_E4typeEOSB_
FN:2288,_ZNSt3__1L4moveIR9SituationEEONS_16remove_referenceIT_E4typeEOS4_
FN:2288,_ZNSt3__1L4moveIRNS_6__treeI9SituationNS_4lessIS2_EENS_9allocatorIS2_EEEEEEONS_16remove_referenceIT_E4typeEOSA_
FN:2288,_ZNSt3__1L4moveIRNS_3setI9SituationNS_4lessIS2_EENS_9allocatorIS2_EEEEEEONS_16remove_referenceIT_E4typeEOSA_
FN:2288,_ZNSt3__1L4moveIRNS_22__tree_node_destructorINS_9allocatorINS_11__tree_nodeI9SituationPvEEEEEEEEONS_16remove_referenceIT_E4typeEOSB_
FN:2288,_ZNSt3__1L4moveIRNS_17__compressed_pairINS_15__tree_end_nodeIPNS_16__tree_node_baseIPvEEEENS_9allocatorINS_11__tree_nodeI9SituationS4_EEEEEEEEONS_16remove_referenceIT_E4typeEOSG_
FN:2288,_ZNSt3__1L4moveIRNS_9allocatorIN11GrammarRule6SymbolEEEEEONS_16remove_referenceIT_E4typeEOS7_
FN:2288,_ZNSt3__1L4moveIRNS_17__compressed_pairINS_12basic_stringIcNS_11char_traitsIcEENS_9allocatorIcEEE5__repES6_EEEEONS_16remove_referenceIT_E4typeEOSC_
FN:2288,_ZNSt3__1L4moveIRPNS_15__tree_end_nodeIPNS_16__tree_node_baseIPvEEEEEEONS_16remove_referenceIT_E4typeEOSA_
FN:2297,_ZNSt3__1L7forwardIRK9SituationEEOT_RNS_16remove_referenceIS4_E4typeE
FN:2297,_ZNSt3__1L7forwardIRPNS_11__tree_nodeI9SituationPvEEEEOT_RNS_16remove_referenceIS7_E4typeE
FN:2297,_ZNSt3__1L7forwardIDnEEOT_RNS_16remove_referenceIS1_E4typeE
FN:2297,_ZNSt3__1L7forwardIRKNS_4lessI9SituationEEEEOT_RNS_16remove_referenceIS6_E4typeE
FN:2297,_ZNSt3__1L7forwardI9SituationEEOT_RNS_16remove_referenceIS2_E4typeE
FN:2297,_ZNSt3__1L7forwardIR11GrammarRuleEEOT_RNS_16remove_referenceIS3_E4typeE
FN:2297,_ZNSt3__1L7forwardIRbEEOT_RNS_16remove_referenceIS2_E4typeE
FN:2297,_ZNSt3__1L7forwardIbEEOT_RNS_16remove_referenceIS1_E4typeE
FN:2297,_ZNSt3__1L7forwardIRK11GrammarRuleEEOT_RNS_16remove_referenceIS4_E4typeE
FN:2297,_ZNSt3__1L7forwardINS_22__tree_node_destructorINS_9allocatorINS_11__tree_nodeI9SituationPvEEEEEEEEOT_RNS_16remove_referenceIS9_E4typeE
FN:2297,_ZNSt3__1L7forwardIiEEOT_RNS_16remove_referenceIS1_E4typeE
FN:2297,_ZNSt3__1L7forwardIRmEEOT_RNS_16remove_referenceIS2_E4typeE
FN:2297,_ZNSt3__1L7forwardINS_3setI9SituationNS_4lessIS2_EENS_9allocatorIS2_EEEEEEOT_RNS_16remove_referenceIS8_E4typeE
FN:2297,_ZNSt3__1L7forwardIRNS_9allocatorINS_3setI9SituationNS_4lessIS3_EENS1_IS3_EEEEEEEEOT_RNS_16remove_referenceISA_E4typeE
FN:2297,_ZNSt3__1L7forwardINS_9allocatorIN11GrammarRule6SymbolEEEEEOT_RNS_16remove_referenceIS5_E4typeE
FN:2297,_ZNSt3__1L7forwardINS_15__tree_iteratorI9SituationPNS_11__tree_nodeIS2_PvEElEEEEOT_RNS_16remove_referenceIS8_E4typeE
FN:4501,_ZNSt3__1L4swapIPNS_3setI9SituationNS_4lessIS2_EENS_9allocatorIS2_EEEEEENS_9enable_ifIXaasr21is_move_constructibleIT_EE5valuesr18is_move_assignableISA_EE5valueEvE4typeERSA_SD_
FNDA:15017,_ZNSt3__1L9addressofI9SituationEEPT_RS2_
FNDA:24786,_ZNSt3__1L9addressofINS_15__tree_end_nodeIPNS_16__tree_node_baseIPvEEEEEEPT_RS7_
FNDA:34360,_ZNSt3__1L9addressofIPNS_16__tree_node_baseIPvEEEEPT_RS5_
FNDA:812,_ZNSt3__1L9addressofIcEEPT_RS1_
FNDA:0,_ZNSt3__1L4moveIRNS_9allocatorIN11GrammarRule6SymbolEEEEEONS_16remove_referenceIT_E4typeEOS7_
FNDA:0,_ZNSt3__1L4moveIRNS_6__treeI9SituationNS_4lessIS2_EENS_9allocatorIS2_EEEEEEONS_16remove_referenceIT_E4typeEOSA_
FNDA:0,_ZNSt3__1L4moveIRPNS_15__tree_end_nodeIPNS_16__tree_node_baseIPvEEEEEEONS_16remove_referenceIT_E4typeEOSA_
FNDA:0,_ZNSt3__1L4moveIRNS_17__compressed_pairINS_15__tree_end_nodeIPNS_16__tree_node_baseIPvEEEENS_9allocatorINS_11__tree_nodeI9SituationS4_EEEEEEEEONS_16remove_referenceIT_E4typeEOSG_
FNDA:0,_ZNSt3__1L4moveIRNS_17__compressed_pairImNS_4lessI9SituationEEEEEEONS_16remove_referenceIT_E4typeEOS8_
FNDA:0,_ZNSt3__1L4moveIRNS_3setI9SituationNS_4lessIS2_EENS_9allocatorIS2_EEEEEEONS_16remove_referenceIT_E4typeEOSA_
FNDA:153,_ZNSt3__1L4moveIRPNS_3setI9SituationNS_4lessIS2_EENS_9allocatorIS2_EEEEEEONS_16remove_referenceIT_E4typeEOSB_
FNDA:8501,_ZNSt3__1L4moveIRNS_22__tree_node_destructorINS_9allocatorINS_11__tree_nodeI9SituationPvEEEEEEEEONS_16remove_referenceIT_E4typeEOSB_
FNDA:94,_ZNSt3__1L4moveIRNS_12basic_stringIcNS_11char_traitsIcEENS_9allocatorIcEEEEEEONS_16remove_referenceIT_E4typeEOS9_
FNDA:94,_ZNSt3__1L4moveIRNS_17__compressed_pairINS_12basic_stringIcNS_11char_traitsIcEENS_9allocatorIcEEE5__repES6_EEEEONS_16remove_referenceIT_E4typeEOSC_
FNDA:4048,_ZNSt3__1L4moveIR9SituationEEONS_16remove_referenceIT_E4typeEOS4_
FNDA:0,_ZNSt3__1L7forwardIR11GrammarRuleEEOT_RNS_16remove_referenceIS3_E4typeE
FNDA:34,_ZNSt3__1L7forwardIDnEEOT_RNS_16remove_referenceIS1_E4typeE
FNDA:0,_ZNSt3__1L7forwardINS_9allocatorIN11GrammarRule6SymbolEEEEEOT_RNS_16remove_referenceIS5_E4typeE
FNDA:53729,_ZNSt3__1L7forwardIiEEOT_RNS_16remove_referenceIS1_E4typeE
FNDA:536,_ZNSt3__1L7forwardIRKNS_4lessI9SituationEEEEOT_RNS_16remove_referenceIS6_E4typeE
FNDA:34,_ZNSt3__1L7forwardIRNS_9allocatorINS_3setI9SituationNS_4lessIS3_EENS1_IS3_EEEEEEEEOT_RNS_16remove_referenceISA_E4typeE
FNDA:0,_ZNSt3__1L7forwardINS_3setI9SituationNS_4lessIS2_EENS_9allocatorIS2_EEEEEEOT_RNS_16remove_referenceIS8_E4typeE
FNDA:235,_ZNSt3__1L7forwardIRK9SituationEEOT_RNS_16remove_referenceIS4_E4typeE
FNDA:17002,_ZNSt3__1L7forwardIRPNS_11__tree_nodeI9SituationPvEEEEOT_RNS_16remove_referenceIS7_E4typeE
FNDA:17002,_ZNSt3__1L7forwardINS_22__tree_node_destructorINS_9allocatorINS_11__tree_nodeI9SituationPvEEEEEEEEOT_RNS_16remove_referenceIS9_E4typeE
FNDA:19340,_ZNSt3__1L7forwardINS_15__tree_iteratorI9SituationPNS_11__tree_nodeIS2_PvEElEEEEOT_RNS_16remove_referenceIS8_E4typeE
FNDA:9670,_ZNSt3__1L7forwardIRbEEOT_RNS_16remove_referenceIS2_E4typeE
FNDA:9670,_ZNSt3__1L7forwardIbEEOT_RNS_16remove_referenceIS1_E4typeE
FNDA:4275,_ZNSt3__1L7forwardI9SituationEEOT_RNS_16remove_referenceIS2_E4typeE
FNDA:53193,_ZNSt3__1L7forwardIRK11GrammarRuleEEOT_RNS_16remove_referenceIS4_E4typeE
FNDA:53193,_ZNSt3__1L7forwardIRmEEOT_RNS_16remove_referenceIS2_E4typeE
FNDA:51,_ZNSt3__1L4swapIPNS_3setI9SituationNS_4lessIS2_EENS_9allocatorIS2_EEEEEENS_9enable_ifIXaasr21is_move_constructibleIT_EE5valuesr18is_move_assignableISA_EE5valueEvE4typeERSA_SD_
FNF:32
FNH:23
DA:451,74975
DA:2291,12890
DA:2299,237913
DA:4504,51
DA:4505,51
DA:4506,51
DA:4507,51
LF:7
LH:7
end_of_record
SF:/Library/Developer/CommandLineTools/usr/include/c++/v1/utility
FN:287,_ZNSt3__1L16move_if_noexceptINS_3setI9SituationNS_4lessIS2_EENS_9allocatorIS2_EEEEEENS_11conditionalIXaantsr29is_nothrow_move_constructibleIT_EE5valuesr21is_copy_constructibleIS9_EE5valueERKS9_OS9_E4typeERS9_
FN:446,_ZNSt3__14pairINS_15__tree_iteratorI9SituationPNS_11__tree_nodeIS2_PvEElEEbEC1IS7_RbLb0EEEOT_OT0_
FN:446,_ZNSt3__14pairINS_15__tree_iteratorI9SituationPNS_11__tree_nodeIS2_PvEElEEbEC2IS7_RbLb0EEEOT_OT0_
FN:482,_ZNSt3__14pairINS_21__tree_const_iteratorI9SituationPNS_11__tree_nodeIS2_PvEElEEbEC1INS_15__tree_iteratorIS2_S6_lEEbLb0EEEONS0_IT_T0_EE
FN:482,_ZNSt3__14pairINS_21__tree_const_iteratorI9SituationPNS_11__tree_nodeIS2_PvEElEEbEC2INS_15__tree_iteratorIS2_S6_lEEbLb0EEEONS0_IT_T0_EE
FNDA:0,_ZNSt3__1L16move_if_noexceptINS_3setI9SituationNS_4lessIS2_EENS_9allocatorIS2_EEEEEENS_11conditionalIXaantsr29is_nothrow_move_constructibleIT_EE5valuesr21is_copy_constructibleIS9_EE5valueERKS9_OS9_E4typeERS9_
FNDA:9670,_ZNSt3__14pairINS_15__tree_iteratorI9SituationPNS_11__tree_nodeIS2_PvEElEEbEC1IS7_RbLb0EEEOT_OT0_
FNDA:9670,_ZNSt3__14pairINS_15__tree_iteratorI9SituationPNS_11__tree_nodeIS2_PvEElEEbEC2IS7_RbLb0EEEOT_OT0_
FNDA:9670,_ZNSt3__14pairINS_21__tree_const_iteratorI9SituationPNS_11__tree_nodeIS2_PvEElEEbEC1INS_15__tree_iteratorIS2_S6_lEEbLb0EEEONS0_IT_T0_EE
FNDA:9670,_ZNSt3__14pairINS_21__tree_const_iteratorI9SituationPNS_11__tree_nodeIS2_PvEElEEbEC2INS_15__tree_iteratorIS2_S6_lEEbLb0EEEONS0_IT_T0_EE
FNF:5
FNH:4
DA:289,0
DA:449,19340
DA:485,19340
LF:3
LH:2
end_of_record
SF:/Library/Developer/CommandLineTools/usr/include/c++/v1/vector
FN:298,_ZNSt3__120__vector_base_commonILb1EEC2Ev
FN:342,_ZNSt3__113__vector_baseI11GrammarRuleNS_9allocatorIS1_EEE7__allocEv
FN:342,_ZNSt3__113__vector_baseIN11GrammarRule6SymbolENS_9allocatorIS2_EEE7__allocEv
FN:342,_ZNSt3__113__vector_baseINS_3setI9SituationNS_4lessIS2_EENS_9allocatorIS2_EEEENS5_IS7_EEE7__allocEv
FN:345,_ZNKSt3__113__vector_baseIN11GrammarRule6SymbolENS_9allocatorIS2_EEE7__allocEv
FN:345,_ZNKSt3__113__vector_baseI11GrammarRuleNS_9allocatorIS1_EEE7__allocEv
FN:345,_ZNKSt3__113__vector_baseINS_3setI9SituationNS_4lessIS2_EENS_9allocatorIS2_EEEENS5_IS7_EEE7__allocEv
FN:348,_ZNSt3__113__vector_baseIN11GrammarRule6SymbolENS_9allocatorIS2_EEE9__end_capEv
FN:348,_ZNSt3__113__vector_baseI11GrammarRuleNS_9allocatorIS1_EEE9__end_capEv
FN:348,_ZNSt3__113__vector_baseINS_3setI9SituationNS_4lessIS2_EENS_9allocatorIS2_EEEENS5_IS7_EEE9__end_capEv
FN:351,_ZNKSt3__113__vector_baseI11GrammarRuleNS_9allocatorIS1_EEE9__end_capEv
FN:351,_ZNKSt3__113__vector_baseINS_3setI9SituationNS_4lessIS2_EENS_9allocatorIS2_EEEENS5_IS7_EEE9__end_capEv
FN:351,_ZNKSt3__113__vector_baseIN11GrammarRule6SymbolENS_9allocatorIS2_EEE9__end_capEv
FN:364,_ZNSt3__113__vector_baseI11GrammarRuleNS_9allocatorIS1_EEE5clearEv
FN:364,_ZNSt3__113__vector_baseIN11GrammarRule6SymbolENS_9allocatorIS2_EEE5clearEv
FN:364,_ZNSt3__113__vector_baseINS_3setI9SituationNS_4lessIS2_EENS_9allocatorIS2_EEEENS5_IS7_EEE5clearEv
FN:366,_ZNKSt3__113__vector_baseIN11GrammarRule6SymbolENS_9allocatorIS2_EEE8capacityEv
FN:366,_ZNKSt3__113__vector_baseI11GrammarRuleNS_9allocatorIS1_EEE8capacityEv
FN:366,_ZNKSt3__113__vector_baseINS_3setI9SituationNS_4lessIS2_EENS_9allocatorIS2_EEEENS5_IS7_EEE8capacityEv
FN:373,_ZNSt3__113__vector_baseI11GrammarRuleNS_9allocatorIS1_EEE19__copy_assign_allocERKS4_
FN:373,_ZNSt3__113__vector_baseIN11GrammarRule6SymbolENS_9allocatorIS2_EEE19__copy_assign_allocERKS5_
FN:398,_ZNSt3__113__vector_baseIN11GrammarRule6SymbolENS_9allocatorIS2_EEE19__copy_assign_allocERKS5_NS_17integral_constantIbLb0EEE
FN:398,_ZNSt3__113__vector_baseI11GrammarRuleNS_9allocatorIS1_EEE19__copy_assign_allocERKS4_NS_17integral_constantIbLb0EEE
FN:417,_ZNSt3__113__vector_baseI11GrammarRuleNS_9allocatorIS1_EEE17__destruct_at_endEPS1_
FN:417,_ZNSt3__113__vector_baseINS_3setI9SituationNS_4lessIS2_EENS_9allocatorIS2_EEEENS5_IS7_EEE17__destruct_at_endEPS7_
FN:417,_ZNSt3__113__vector_baseIN11GrammarRule6SymbolENS_9allocatorIS2_EEE17__destruct_at_endEPS2_
FN:447,_ZNSt3__113__vector_baseIN11GrammarRule6SymbolENS_9allocatorIS2_EEEC2EOS4_
FN:454,_ZNSt3__113__vector_baseIN11GrammarRule6SymbolENS_9allocatorIS2_EEED2Ev
FN:464,_ZNSt3__16vectorIN11GrammarRule6SymbolENS_9allocatorIS2_EEED1Ev
FN:464,_ZNSt3__16vectorIN11GrammarRule6SymbolENS_9allocatorIS2_EEED2Ev
FN:649,_ZNKSt3__16vectorI11GrammarRuleNS_9allocatorIS1_EEE4sizeEv
FN:649,_ZNKSt3__16vectorIN11GrammarRule6SymbolENS_9allocatorIS2_EEE4sizeEv
FN:649,_ZNKSt3__16vectorINS_3setI9SituationNS_4lessIS2_EENS_9allocatorIS2_EEEENS5_IS7_EEE4sizeEv
FN:652,_ZNKSt3__16vectorINS_3setI9SituationNS_4lessIS2_EENS_9allocatorIS2_EEEENS5_IS7_EEE8capacityEv
FN:652,_ZNKSt3__16vectorI11GrammarRuleNS_9allocatorIS1_EEE8capacityEv
FN:652,_ZNKSt3__16vectorIN11GrammarRule6SymbolENS_9allocatorIS2_EEE8capacityEv
FN:691,_ZNKSt3__16vectorINS_3setI9SituationNS_4lessIS2_EENS_9allocatorIS2_EEEENS5_IS7_EEE4dataEv
FN:691,_ZNKSt3__16vectorI11GrammarRuleNS_9allocatorIS1_EEE4dataEv
FN:691,_ZNKSt3__16vectorIN11GrammarRule6SymbolENS_9allocatorIS2_EEE4dataEv
FN:763,_ZNSt3__16vectorINS_3setI9SituationNS_4lessIS2_EENS_9allocatorIS2_EEEENS5_IS7_EEE5clearEv
FN:763,_ZNSt3__16vectorIN11GrammarRule6SymbolENS_9allocatorIS2_EEE5clearEv
FN:763,_ZNSt3__16vectorI11GrammarRuleNS_9allocatorIS1_EEE5clearEv
FN:823,_ZNSt3__16vectorIN11GrammarRule6SymbolENS_9allocatorIS2_EEE17__destruct_at_endEPS2_
FN:823,_ZNSt3__16vectorI11GrammarRuleNS_9allocatorIS1_EEE17__destruct_at_endEPS1_
FN:823,_ZNSt3__16vectorINS_3setI9SituationNS_4lessIS2_EENS_9allocatorIS2_EEEENS5_IS7_EEE17__destruct_at_endEPS7_
FN:855,_ZNKSt3__16vectorI11GrammarRuleNS_9allocatorIS1_EEE31__annotate_contiguous_containerEPKvS6_S6_S6_
FN:855,_ZNKSt3__16vectorINS_3setI9SituationNS_4lessIS2_EENS_9allocatorIS2_EEEENS5_IS7_EEE31__annotate_contiguous_containerEPKvSB_SB_SB_
FN:855,_ZNKSt3__16vectorIN11GrammarRule6SymbolENS_9allocatorIS2_EEE31__annotate_contiguous_containerEPKvS7_S7_S7_
FN:859,_ZNKSt3__16vectorINS_3setI9SituationNS_4lessIS2_EENS_9allocatorIS2_EEEENS5_IS7_EEE14__annotate_newEm
FN:859,_ZNKSt3__16vectorI11GrammarRuleNS_9allocatorIS1_EEE14__annotate_newEm
FN:859,_ZNKSt3__16vectorIN11GrammarRule6SymbolENS_9allocatorIS2_EEE14__annotate_newEm
FN:865,_ZNKSt3__16vectorINS_3setI9SituationNS_4lessIS2_EENS_9allocatorIS2_EEEENS5_IS7_EEE17__annotate_deleteEv
FN:878,_ZNKSt3__16vectorINS_3setI9SituationNS_4lessIS2_EENS_9allocatorIS2_EEEENS5_IS7_EEE17__annotate_shrinkEm
FN:878,_ZNKSt3__16vectorI11GrammarRuleNS_9allocatorIS1_EEE17__annotate_shrinkEm
FN:878,_ZNKSt3__16vectorIN11GrammarRule6SymbolENS_9allocatorIS2_EEE17__annotate_shrinkEm
FN:903,_ZNSt3__16vectorIN11GrammarRule6SymbolENS_9allocatorIS2_EEE24__RAII_IncreaseAnnotatorC2ERKS5_m
FN:903,_ZNSt3__16vectorI11GrammarRuleNS_9allocatorIS1_EEE24__RAII_IncreaseAnnotatorC1ERKS4_m
FN:903,_ZNSt3__16vectorINS_3setI9SituationNS_4lessIS2_EENS_9allocatorIS2_EEEENS5_IS7_EEE24__RAII_IncreaseAnnotatorC2ERKS9_m
FN:903,_ZNSt3__16vectorINS_3setI9SituationNS_4lessIS2_EENS_9allocatorIS2_EEEENS5_IS7_EEE24__RAII_IncreaseAnnotatorC1ERKS9_m
FN:903,_ZNSt3__16vectorI11GrammarRuleNS_9allocatorIS1_EEE24__RAII_IncreaseAnnotatorC2ERKS4_m
FN:903,_ZNSt3__16vectorIN11GrammarRule6SymbolENS_9allocatorIS2_EEE24__RAII_IncreaseAnnotatorC1ERKS5_m
FN:904,_ZNSt3__16vectorINS_3setI9SituationNS_4lessIS2_EENS_9allocatorIS2_EEEENS5_IS7_EEE24__RAII_IncreaseAnnotator6__doneEv
FN:904,_ZNSt3__16vectorIN11GrammarRule6SymbolENS_9allocatorIS2_EEE24__RAII_IncreaseAnnotator6__doneEv
FN:904,_ZNSt3__16vectorI11GrammarRuleNS_9allocatorIS1_EEE24__RAII_IncreaseAnnotator6__doneEv
FN:928,_ZNSt3__16vectorINS_3setI9SituationNS_4lessIS2_EENS_9allocatorIS2_EEEENS5_IS7_EEE26__swap_out_circular_bufferERNS_14__split_bufferIS7_RS8_EE
FN:966,_ZNSt3__16vectorIN11GrammarRule6SymbolENS_9allocatorIS2_EEE11__vallocateEm
FN:966,_ZNSt3__16vectorI11GrammarRuleNS_9allocatorIS1_EEE11__vallocateEm
FN:977,_ZNSt3__16vectorI11GrammarRuleNS_9allocatorIS1_EEE13__vdeallocateEv
FN:977,_ZNSt3__16vectorIN11GrammarRule6SymbolENS_9allocatorIS2_EEE13__vdeallocateEv
FN:989,_ZNKSt3__16vectorIN11GrammarRule6SymbolENS_9allocatorIS2_EEE8max_sizeEv
FN:989,_ZNKSt3__16vectorINS_3setI9SituationNS_4lessIS2_EENS_9allocatorIS2_EEEENS5_IS7_EEE8max_sizeEv
FN:989,_ZNKSt3__16vectorI11GrammarRuleNS_9allocatorIS1_EEE8max_sizeEv
FN:999,_ZNKSt3__16vectorIN11GrammarRule6SymbolENS_9allocatorIS2_EEE11__recommendEm
FN:999,_ZNKSt3__16vectorI11GrammarRuleNS_9allocatorIS1_EEE11__recommendEm
FN:999,_ZNKSt3__16vectorINS_3setI9SituationNS_4lessIS2_EENS_9allocatorIS2_EEEENS5_IS7_EEE11__recommendEm
FN:1017,_ZNSt3__16vectorINS_3setI9SituationNS_4lessIS2_EENS_9allocatorIS2_EEEENS5_IS7_EEE18__construct_at_endEm
FN:1059,_ZNSt3__16vectorI11GrammarRuleNS_9allocatorIS1_EEE18__construct_at_endIPS1_EENS_9enable_ifIXsr21__is_forward_iteratorIT_EE5valueEvE4typeES8_S8_m
FN:1059,_ZNSt3__16vectorIN11GrammarRule6SymbolENS_9allocatorIS2_EEE18__construct_at_endIPS2_EENS_9enable_ifIXsr21__is_forward_iteratorIT_EE5valueEvE4typeES9_S9_m
FN:1073,_ZNSt3__16vectorINS_3setI9SituationNS_4lessIS2_EENS_9allocatorIS2_EEEENS5_IS7_EEE8__appendEm
FN:1236,_ZNSt3__16vectorIN11GrammarRule6SymbolENS_9allocatorIS2_EEEC2ERKS5_
FN:1236,_ZNSt3__16vectorIN11GrammarRule6SymbolENS_9allocatorIS2_EEEC1ERKS5_
FN:1387,_ZNSt3__16vectorI11GrammarRuleNS_9allocatorIS1_EEEaSERKS4_
FN:1387,_ZNSt3__16vectorIN11GrammarRule6SymbolENS_9allocatorIS2_EEEaSERKS5_
FN:1425,_ZNSt3__16vectorIN11GrammarRule6SymbolENS_9allocatorIS2_EEE6assignIPS2_EENS_9enable_ifIXaasr21__is_forward_iteratorIT_EE5valuesr16is_constructibleIS2_NS_15iterator_traitsIS9_E9referenceEEE5valueEvE4typeES9_S9_
FN:1425,_ZNSt3__16vectorI11GrammarRuleNS_9allocatorIS1_EEE6assignIPS1_EENS_9enable_ifIXaasr21__is_forward_iteratorIT_EE5valuesr16is_constructibleIS1_NS_15iterator_traitsIS8_E9referenceEEE5valueEvE4typeES8_S8_
FN:1478,_ZNSt3__16vectorI11GrammarRuleNS_9allocatorIS1_EEE11__make_iterEPS1_
FN:1502,_ZNSt3__16vectorI11GrammarRuleNS_9allocatorIS1_EEE5beginEv
FN:1518,_ZNSt3__16vectorI11GrammarRuleNS_9allocatorIS1_EEE3endEv
FN:1534,_ZNSt3__16vectorINS_3setI9SituationNS_4lessIS2_EENS_9allocatorIS2_EEEENS5_IS7_EEEixEm
FN:2037,_ZNSt3__16vectorINS_3setI9SituationNS_4lessIS2_EENS_9allocatorIS2_EEEENS5_IS7_EEE6resizeEm
FN:2139,_ZNSt3__16vectorIN11GrammarRule6SymbolENS_9allocatorIS2_EEE26__invalidate_all_iteratorsEv
FN:2139,_ZNSt3__16vectorI11GrammarRuleNS_9allocatorIS1_EEE26__invalidate_all_iteratorsEv
FN:2139,_ZNSt3__16vectorINS_3setI9SituationNS_4lessIS2_EENS_9allocatorIS2_EEEENS5_IS7_EEE26__invalidate_all_iteratorsEv
FN:2150,_ZNSt3__16vectorINS_3setI9SituationNS_4lessIS2_EENS_9allocatorIS2_EEEENS5_IS7_EEE27__invalidate_iterators_pastEPS7_
FN:2150,_ZNSt3__16vectorIN11GrammarRule6SymbolENS_9allocatorIS2_EEE27__invalidate_iterators_pastEPS2_
FN:2150,_ZNSt3__16vectorI11GrammarRuleNS_9allocatorIS1_EEE27__invalidate_iterators_pastEPS1_
FNDA:0,_ZNSt3__120__vector_base_commonILb1EEC2Ev
FNDA:0,_ZNSt3__113__vector_baseIN11GrammarRule6SymbolENS_9allocatorIS2_EEE7__allocEv
FNDA:39,_ZNSt3__113__vector_baseI11GrammarRuleNS_9allocatorIS1_EEE7__allocEv
FNDA:301,_ZNSt3__113__vector_baseINS_3setI9SituationNS_4lessIS2_EENS_9allocatorIS2_EEEENS5_IS7_EEE7__allocEv
FNDA:0,_ZNKSt3__113__vector_baseIN11GrammarRule6SymbolENS_9allocatorIS2_EEE7__allocEv
FNDA:0,_ZNKSt3__113__vector_baseI11GrammarRuleNS_9allocatorIS1_EEE7__allocEv
FNDA:17,_ZNKSt3__113__vector_baseINS_3setI9SituationNS_4lessIS2_EENS_9allocatorIS2_EEEENS5_IS7_EEE7__allocEv
FNDA:0,_ZNSt3__113__vector_baseIN11GrammarRule6SymbolENS_9allocatorIS2_EEE9__end_capEv
FNDA:0,_ZNSt3__113__vector_baseI11GrammarRuleNS_9allocatorIS1_EEE9__end_capEv
FNDA:64,_ZNSt3__113__vector_baseINS_3setI9SituationNS_4lessIS2_EENS_9allocatorIS2_EEEENS5_IS7_EEE9__end_capEv
FNDA:94,_ZNKSt3__113__vector_baseI11GrammarRuleNS_9allocatorIS1_EEE9__end_capEv
FNDA:0,_ZNKSt3__113__vector_baseIN11GrammarRule6SymbolENS_9allocatorIS2_EEE9__end_capEv
FNDA:132,_ZNKSt3__113__vector_baseINS_3setI9SituationNS_4lessIS2_EENS_9allocatorIS2_EEEENS5_IS7_EEE9__end_capEv
FNDA:0,_ZNSt3__113__vector_baseIN11GrammarRule6SymbolENS_9allocatorIS2_EEE5clearEv
FNDA:0,_ZNSt3__113__vector_baseI11GrammarRuleNS_9allocatorIS1_EEE5clearEv
FNDA:47,_ZNSt3__113__vector_baseINS_3setI9SituationNS_4lessIS2_EENS_9allocatorIS2_EEEENS5_IS7_EEE5clearEv
FNDA:94,_ZNKSt3__113__vector_baseI11GrammarRuleNS_9allocatorIS1_EEE8capacityEv
FNDA:0,_ZNKSt3__113__vector_baseIN11GrammarRule6SymbolENS_9allocatorIS2_EEE8capacityEv
FNDA:132,_ZNKSt3__113__vector_baseINS_3setI9SituationNS_4lessIS2_EENS_9allocatorIS2_EEEENS5_IS7_EEE8capacityEv
FNDA:47,_ZNSt3__113__vector_baseI11GrammarRuleNS_9allocatorIS1_EEE19__copy_assign_allocERKS4_
FNDA:0,_ZNSt3__113__vector_baseIN11GrammarRule6SymbolENS_9allocatorIS2_EEE19__copy_assign_allocERKS5_
FNDA:47,_ZNSt3__113__vector_baseI11GrammarRuleNS_9allocatorIS1_EEE19__copy_assign_allocERKS4_NS_17integral_constantIbLb0EEE
FNDA:0,_ZNSt3__113__vector_baseIN11GrammarRule6SymbolENS_9allocatorIS2_EEE19__copy_assign_allocERKS5_NS_17integral_constantIbLb0EEE
FNDA:0,_ZNSt3__113__vector_baseIN11GrammarRule6SymbolENS_9allocatorIS2_EEE17__destruct_at_endEPS2_
FNDA:39,_ZNSt3__113__vector_baseI11GrammarRuleNS_9allocatorIS1_EEE17__destruct_at_endEPS1_
FNDA:47,_ZNSt3__113__vector_baseINS_3setI9SituationNS_4lessIS2_EENS_9allocatorIS2_EEEENS5_IS7_EEE17__destruct_at_endEPS7_
FNDA:0,_ZNSt3__113__vector_baseIN11GrammarRule6SymbolENS_9allocatorIS2_EEEC2EOS4_
FNDA:0,_ZNSt3__113__vector_baseIN11GrammarRule6SymbolENS_9allocatorIS2_EEED2Ev
FNDA:0,_ZNSt3__16vectorIN11GrammarRule6SymbolENS_9allocatorIS2_EEED1Ev
FNDA:0,_ZNSt3__16vectorIN11GrammarRule6SymbolENS_9allocatorIS2_EEED2Ev
FNDA:117,_ZNKSt3__16vectorI11GrammarRuleNS_9allocatorIS1_EEE4sizeEv
FNDA:0,_ZNKSt3__16vectorIN11GrammarRule6SymbolENS_9allocatorIS2_EEE4sizeEv
FNDA:209,_ZNKSt3__16vectorINS_3setI9SituationNS_4lessIS2_EENS_9allocatorIS2_EEEENS5_IS7_EEE4sizeEv
FNDA:94,_ZNKSt3__16vectorI11GrammarRuleNS_9allocatorIS1_EEE8capacityEv
FNDA:0,_ZNKSt3__16vectorIN11GrammarRule6SymbolENS_9allocatorIS2_EEE8capacityEv
FNDA:132,_ZNKSt3__16vectorINS_3setI9SituationNS_4lessIS2_EENS_9allocatorIS2_EEEENS5_IS7_EEE8capacityEv
FNDA:0,_ZNKSt3__16vectorIN11GrammarRule6SymbolENS_9allocatorIS2_EEE4dataEv
FNDA:156,_ZNKSt3__16vectorI11GrammarRuleNS_9allocatorIS1_EEE4dataEv
FNDA:324,_ZNKSt3__16vectorINS_3setI9SituationNS_4lessIS2_EENS_9allocatorIS2_EEEENS5_IS7_EEE4dataEv
FNDA:47,_ZNSt3__16vectorINS_3setI9SituationNS_4lessIS2_EENS_9allocatorIS2_EEEENS5_IS7_EEE5clearEv
FNDA:0,_ZNSt3__16vectorIN11GrammarRule6SymbolENS_9allocatorIS2_EEE5clearEv
FNDA:0,_ZNSt3__16vectorI11GrammarRuleNS_9allocatorIS1_EEE5clearEv
FNDA:39,_ZNSt3__16vectorI11GrammarRuleNS_9allocatorIS1_EEE17__destruct_at_endEPS1_
FNDA:0,_ZNSt3__16vectorIN11GrammarRule6SymbolENS_9allocatorIS2_EEE17__destruct_at_endEPS2_
FNDA:0,_ZNSt3__16vectorINS_3setI9SituationNS_4lessIS2_EENS_9allocatorIS2_EEEENS5_IS7_EEE17__destruct_at_endEPS7_
FNDA:0,_ZNKSt3__16vectorIN11GrammarRule6SymbolENS_9allocatorIS2_EEE31__annotate_contiguous_containerEPKvS7_S7_S7_
FNDA:39,_ZNKSt3__16vectorI11GrammarRuleNS_9allocatorIS1_EEE31__annotate_contiguous_containerEPKvS6_S6_S6_
FNDA:81,_ZNKSt3__16vectorINS_3setI9SituationNS_4lessIS2_EENS_9allocatorIS2_EEEENS5_IS7_EEE31__annotate_contiguous_containerEPKvSB_SB_SB_
FNDA:0,_ZNKSt3__16vectorIN11GrammarRule6SymbolENS_9allocatorIS2_EEE14__annotate_newEm
FNDA:0,_ZNKSt3__16vectorI11GrammarRuleNS_9allocatorIS1_EEE14__annotate_newEm
FNDA:17,_ZNKSt3__16vectorINS_3setI9SituationNS_4lessIS2_EENS_9allocatorIS2_EEEENS5_IS7_EEE14__annotate_newEm
FNDA:17,_ZNKSt3__16vectorINS_3setI9SituationNS_4lessIS2_EENS_9allocatorIS2_EEEENS5_IS7_EEE17__annotate_deleteEv
FNDA:0,_ZNKSt3__16vectorIN11GrammarRule6SymbolENS_9allocatorIS2_EEE17__annotate_shrinkEm
FNDA:39,_ZNKSt3__16vectorI11GrammarRuleNS_9allocatorIS1_EEE17__annotate_shrinkEm
FNDA:47,_ZNKSt3__16vectorINS_3setI9SituationNS_4lessIS2_EENS_9allocatorIS2_EEEENS5_IS7_EEE17__annotate_shrinkEm
FNDA:0,_ZNSt3__16vectorIN11GrammarRule6SymbolENS_9allocatorIS2_EEE24__RAII_IncreaseAnnotatorC1ERKS5_m
FNDA:0,_ZNSt3__16vectorIN11GrammarRule6SymbolENS_9allocatorIS2_EEE24__RAII_IncreaseAnnotatorC2ERKS5_m
FNDA:0,_ZNSt3__16vectorI11GrammarRuleNS_9allocatorIS1_EEE24__RAII_IncreaseAnnotatorC1ERKS4_m
FNDA:0,_ZNSt3__16vectorI11GrammarRuleNS_9allocatorIS1_EEE24__RAII_IncreaseAnnotatorC2ERKS4_m
FNDA:130,_ZNSt3__16vectorINS_3setI9SituationNS_4lessIS2_EENS_9allocatorIS2_EEEENS5_IS7_EEE24__RAII_IncreaseAnnotatorC1ERKS9_m
FNDA:130,_ZNSt3__16vectorINS_3setI9SituationNS_4lessIS2_EENS_9allocatorIS2_EEEENS5_IS7_EEE24__RAII_IncreaseAnnotatorC2ERKS9_m
FNDA:0,_ZNSt3__16vectorIN11GrammarRule6SymbolENS_9allocatorIS2_EEE24__RAII_IncreaseAnnotator6__doneEv
FNDA:0,_ZNSt3__16vectorI11GrammarRuleNS_9allocatorIS1_EEE24__RAII_IncreaseAnnotator6__doneEv
FNDA:130,_ZNSt3__16vectorINS_3setI9SituationNS_4lessIS2_EENS_9allocatorIS2_EEEENS5_IS7_EEE24__RAII_IncreaseAnnotator6__doneEv
FNDA:17,_ZNSt3__16vectorINS_3setI9SituationNS_4lessIS2_EENS_9allocatorIS2_EEEENS5_IS7_EEE26__swap_out_circular_bufferERNS_14__split_bufferIS7_RS8_EE
FNDA:0,_ZNSt3__16vectorI11GrammarRuleNS_9allocatorIS1_EEE11__vallocateEm
FNDA:0,_ZNSt3__16vectorIN11GrammarRule6SymbolENS_9allocatorIS2_EEE11__vallocateEm
FNDA:8,_ZNSt3__16vectorI11GrammarRuleNS_9allocatorIS1_EEE13__vdeallocateEv
FNDA:0,_ZNSt3__16vectorIN11GrammarRule6SymbolENS_9allocatorIS2_EEE13__vdeallocateEv
FNDA:0,_ZNKSt3__16vectorIN11GrammarRule6SymbolENS_9allocatorIS2_EEE8max_sizeEv
FNDA:0,_ZNKSt3__16vectorI11GrammarRuleNS_9allocatorIS1_EEE8max_sizeEv
FNDA:17,_ZNKSt3__16vectorINS_3setI9SituationNS_4lessIS2_EENS_9allocatorIS2_EEEENS5_IS7_EEE8max_sizeEv
FNDA:8,_ZNKSt3__16vectorI11GrammarRuleNS_9allocatorIS1_EEE11__recommendEm
FNDA:0,_ZNKSt3__16vectorIN11GrammarRule6SymbolENS_9allocatorIS2_EEE11__recommendEm
FNDA:17,_ZNKSt3__16vectorINS_3setI9SituationNS_4lessIS2_EENS_9allocatorIS2_EEEENS5_IS7_EEE11__recommendEm
FNDA:30,_ZNSt3__16vectorINS_3setI9SituationNS_4lessIS2_EENS_9allocatorIS2_EEEENS5_IS7_EEE18__construct_at_endEm
FNDA:0,_ZNSt3__16vectorI11GrammarRuleNS_9allocatorIS1_EEE18__construct_at_endIPS1_EENS_9enable_ifIXsr21__is_forward_iteratorIT_EE5valueEvE4typeES8_S8_m
FNDA:0,_ZNSt3__16vectorIN11GrammarRule6SymbolENS_9allocatorIS2_EEE18__construct_at_endIPS2_EENS_9enable_ifIXsr21__is_forward_iteratorIT_EE5valueEvE4typeES9_S9_m
FNDA:47,_ZNSt3__16vectorINS_3setI9SituationNS_4lessIS2_EENS_9allocatorIS2_EEEENS5_IS7_EEE8__appendEm
FNDA:0,_ZNSt3__16vectorIN11GrammarRule6SymbolENS_9allocatorIS2_EEEC1ERKS5_
FNDA:0,_ZNSt3__16vectorIN11GrammarRule6SymbolENS_9allocatorIS2_EEEC2ERKS5_
FNDA:47,_ZNSt3__16vectorI11GrammarRuleNS_9allocatorIS1_EEEaSERKS4_
FNDA:0,_ZNSt3__16vectorIN11GrammarRule6SymbolENS_9allocatorIS2_EEEaSERKS5_
FNDA:47,_ZNSt3__16vectorI11GrammarRuleNS_9allocatorIS1_EEE6assignIPS1_EENS_9enable_ifIXaasr21__is_forward_iteratorIT_EE5valuesr16is_constructibleIS1_NS_15iterator_traitsIS8_E9referenceEEE5valueEvE4typeES8_S8_
FNDA:0,_ZNSt3__16vectorIN11GrammarRule6SymbolENS_9allocatorIS2_EEE6assignIPS2_EENS_9enable_ifIXaasr21__is_forward_iteratorIT_EE5valuesr16is_constructibleIS2_NS_15iterator_traitsIS9_E9referenceEEE5valueEvE4typeES9_S9_
FNDA:3014,_ZNSt3__16vectorI11GrammarRuleNS_9allocatorIS1_EEE11__make_iterEPS1_
FNDA:1507,_ZNSt3__16vectorI11GrammarRuleNS_9allocatorIS1_EEE5beginEv
FNDA:1507,_ZNSt3__16vectorI11GrammarRuleNS_9allocatorIS1_EEE3endEv
FNDA:14100,_ZNSt3__16vectorINS_3setI9SituationNS_4lessIS2_EENS_9allocatorIS2_EEEENS5_IS7_EEEixEm
FNDA:47,_ZNSt3__16vectorINS_3setI9SituationNS_4lessIS2_EENS_9allocatorIS2_EEEENS5_IS7_EEE6resizeEm
FNDA:47,_ZNSt3__16vectorI11GrammarRuleNS_9allocatorIS1_EEE26__invalidate_all_iteratorsEv
FNDA:0,_ZNSt3__16vectorIN11GrammarRule6SymbolENS_9allocatorIS2_EEE26__invalidate_all_iteratorsEv
FNDA:64,_ZNSt3__16vectorINS_3setI9SituationNS_4lessIS2_EENS_9allocatorIS2_EEEENS5_IS7_EEE26__invalidate_all_iteratorsEv
FNDA:0,_ZNSt3__16vectorIN11GrammarRule6SymbolENS_9allocatorIS2_EEE27__invalidate_iterators_pastEPS2_
FNDA:39,_ZNSt3__16vectorI11GrammarRuleNS_9allocatorIS1_EEE27__invalidate_iterators_pastEPS1_
FNDA:0,_ZNSt3__16vectorINS_3setI9SituationNS_4lessIS2_EENS_9allocatorIS2_EEEENS5_IS7_EEE27__invalidate_iterators_pastEPS7_
FNF:96
FNH:47
DA:298,0
DA:343,340
DA:346,17
DA:349,64
DA:352,226
DA:359,0
DA:364,47
DA:367,226
DA:374,47
DA:375,47
DA:399,47
DA:419,86
DA:420,724
DA:421,276
DA:422,86
DA:423,86
DA:448,0
DA:449,0
DA:450,0
DA:456,0
DA:458,0
DA:459,0
DA:460,0
DA:461,0
DA:464,0
DA:650,326
DA:653,226
DA:692,480
DA:765,47
DA:766,47
DA:767,47
DA:768,47
DA:769,47
DA:825,39
DA:826,39
DA:827,39
DA:828,39
DA:829,39
DA:856,120
DA:860,34
DA:861,17
DA:862,17
DA:866,34
DA:867,17
DA:868,17
DA:880,172
DA:881,86
DA:882,86
DA:903,260
DA:904,130
DA:930,17
DA:931,17
DA:932,17
DA:933,17
DA:934,17
DA:935,17
DA:936,17
DA:937,17
DA:938,17
DA:968,0
DA:969,0
DA:970,0
DA:971,0
DA:972,0
DA:973,0
DA:979,8
DA:981,0
DA:982,0
DA:983,0
DA:984,0
DA:985,8
DA:991,51
DA:992,17
DA:1001,25
DA:1002,25
DA:1003,0
DA:1004,25
DA:1005,25
DA:1006,0
DA:1007,25
DA:1008,25
DA:1019,30
DA:1020,30
DA:1022,130
DA:1023,130
DA:1024,130
DA:1025,130
DA:1026,130
DA:1027,260
DA:1028,30
DA:1061,0
DA:1062,0
DA:1063,0
DA:1064,0
DA:1065,0
DA:1075,47
DA:1076,30
DA:1079,17
DA:1080,17
DA:1081,17
DA:1082,17
DA:1083,17
DA:1084,47
DA:1237,0
DA:1238,0
DA:1242,0
DA:1243,0
DA:1245,0
DA:1246,0
DA:1247,0
DA:1248,0
DA:1389,47
DA:1391,47
DA:1392,47
DA:1393,47
DA:1394,47
DA:1427,47
DA:1428,47
DA:1430,39
DA:1431,39
DA:1432,39
DA:1434,0
DA:1435,0
DA:1436,0
DA:1437,0
DA:1438,39
DA:1439,39
DA:1440,0
DA:1442,39
DA:1443,39
DA:1446,8
DA:1447,8
DA:1448,8
DA:1450,47
DA:1451,47
DA:1483,3014
DA:1504,1507
DA:1520,1507
DA:1537,14100
DA:2039,47
DA:2040,47
DA:2041,47
DA:2042,0
DA:2043,0
DA:2044,47
DA:2144,111
DA:2166,39
LF:147
LH:104
end_of_record
SF:/Users/evgenabramov/MIPT-Formal-Practice2/Algo.cpp
FN:3,_ZN4Algo5CheckE7GrammarRKNSt3__112basic_stringIcNS1_11char_traitsIcEENS1_9allocatorIcEEEE
FN:25,_ZN4Algo21GetFakeStartSituationEv
FN:33,_ZN4Algo4ScanEm
FN:44,_ZN4Algo7PredictEm
FN:56,_ZN4Algo8CompleteEm
FNDA:47,_ZN4Algo5CheckE7GrammarRKNSt3__112basic_stringIcNS1_11char_traitsIcEENS1_9allocatorIcEEEE
FNDA:47,_ZN4Algo21GetFakeStartSituationEv
FNDA:268,_ZN4Algo4ScanEm
FNDA:764,_ZN4Algo7PredictEm
FNDA:764,_ZN4Algo8CompleteEm
FNF:5
FNH:5
DA:4,47
DA:5,47
DA:6,47
DA:7,47
DA:8,47
DA:9,141
DA:10,630
DA:11,268
DA:12,268
DA:13,268
DA:14,1528
DA:15,764
DA:16,764
DA:17,2292
DA:18,268
DA:19,47
DA:20,94
DA:21,141
DA:22,94
DA:23,47
DA:26,141
DA:27,47
DA:28,47
DA:29,47
DA:30,47
DA:31,47
DA:34,268
DA:35,47
DA:37,6858
DA:38,2416
DA:39,532
DA:40,266
DA:42,268
DA:45,22052
DA:46,17936
DA:47,49770
DA:48,23378
DA:49,22797
DA:50,7599
DA:52,1507
DA:53,5131
DA:54,764
DA:57,18708
DA:58,4295
DA:59,40016
DA:60,16555
DA:61,3516
DA:62,1758
DA:64,1106
DA:66,764
LF:50
LH:50
end_of_record
SF:/Users/evgenabramov/MIPT-Formal-Practice2/Grammar.h
FN:3,_ZN7GrammaraSERKS_
FNDA:47,_ZN7GrammaraSERKS_
FNF:1
FNH:1
DA:3,47
LF:1
LH:1
end_of_record
SF:/Users/evgenabramov/MIPT-Formal-Practice2/GrammarRule.h
FN:8,_ZN11GrammarRuleD1Ev
FN:8,_ZN11GrammarRuleD2Ev
FN:8,_ZN11GrammarRuleaSERKS_
FN:13,_ZN11GrammarRuleC2ERKS_
FN:13,_ZN11GrammarRuleC1ERKS_
FNDA:0,_ZN11GrammarRuleD1Ev
FNDA:0,_ZN11GrammarRuleaSERKS_
FNDA:0,_ZN11GrammarRuleD2Ev
FNDA:0,_ZN11GrammarRuleC1ERKS_
FNDA:0,_ZN11GrammarRuleC2ERKS_
FNF:5
FNH:0
DA:8,0
DA:13,0
LF:2
LH:0
end_of_record
SF:/Users/evgenabramov/MIPT-Formal-Practice2/Situation.h
FN:3,_ZN9SituationD1Ev
FN:3,_ZN9SituationD2Ev
FN:4,_ZN9SituationC1ERK11GrammarRulemm
FN:4,_ZN9SituationC2ERK11GrammarRulemm
FN:7,_ZN9SituationC1ERKS_
FN:7,_ZN9SituationC2ERKS_
FNDA:0,_ZN9SituationD1Ev
FNDA:0,_ZN9SituationD2Ev
FNDA:9717,_ZN9SituationC1ERK11GrammarRulemm
FNDA:9717,_ZN9SituationC2ERK11GrammarRulemm
FNDA:6033,_ZN9SituationC1ERKS_
FNDA:6033,_ZN9SituationC2ERKS_
FNF:6
FNH:4
DA:3,0
DA:5,19434
DA:7,12066
LF:3
LH:2
end_of_record
